(dp1
S'5501'
p2
S' \t\tHotline file transfer connection\tUnofficial'
p3
sS'5310'
p4
S'  \tOutlaws (1997 video game). Both  :  and  :  are reserved, but only  :  is used\tOfficial'
p5
sS'13782'
p6
S'  \tSymantec NetBackup\xe2\x80\x94bpcd (formerly VERITAS)\tOfficial'
p7
sS'18333'
p8
S' \t\tBitcoin testnet[129]\tUnofficial'
p9
sS'27888'
p10
S' \tKaillera server\tUnofficial'
p11
sS'34010'
p12
S' PortStart\xe2\x80\x94WarZ\tUnofficial'
p13
sS'31415'
p14
S' ThoughtSignal\xe2\x80\x94Server Communication Service (often Informational)\tUnofficial'
p15
sS'5656'
p16
S' \t\tIBM Lotus Sametime p2p file transfer\tUnofficial'
p17
sS'9676'
p18
S'  \tSpiceworks Desktop, IT Helpdesk Software\tUnofficial'
p19
sS'36330'
p20
S' \t\tFolding@home v7 default for client control interface\tUnofficial'
p21
sS'8303'
p22
S' \tTeeworlds Server\tUnofficial'
p23
sS'5358'
p24
S'  \tWSDAPI Applications to Use a Secure Channel (only provided by Windows Vista, Windows 7 and Server 2008)\tUnofficial'
p25
sS'7000'
p26
S' \t\tAvira Server Management Console\tUnofficial'
p27
sS'8090'
p28
S' \t\tCoral Content Distribution Network (deprecated; 80 and 8080 now supported)[122]\tUnofficial'
p29
sS'9999'
p30
S' Urchin Web Analytics[citation needed]\tUnofficial'
p31
sS'20560'
p32
S'  \tKilling Floor\tUnofficial'
p33
sS'7787'
p34
S' \t\tGFI EventsManager 7 & 8[citation needed]\tOfficial'
p35
sS'5988'
p36
S'   CIM XML transactions over HTTP/S\xe2\x80\x94VMware vCenter ESXi management[104]\tUnofficial'
p37
sS'5989'
p38
S' \t\tCIM XML transactions over HTTP/S\xe2\x80\x94VMware vCenter ESXi management[104]\tUnofficial'
p39
sS'7306'
p40
S' \t\tZimbra mysql [mailbox][citation needed]\tUnofficial'
p41
sS'7307'
p42
S' \t\tZimbra mysql [logger][citation needed]\tUnofficial'
p43
sS'8091'
p44
S' \t\tCouchBase Web Administration\tUnofficial'
p45
sS'7656'
p46
S' \t\tI2P anonymizing overlay network\tUnofficial'
p47
sS'10891'
p48
S' \t\tJungle Disk (this port is opened by the Jungle Disk Monitor service on the localhost)[citation needed]\tUnofficial'
p49
sS'2381'
p50
S' \t\tHP Insight Manager default for Web server[citation needed]\tUnofficial'
p51
sS'5986'
p52
S' \t\tWindows PowerShell Default psSession Port[103]\tofficial'
p53
sS'1947'
p54
S'  \tSentinelSRM (hasplm), Aladdin HASP License Manager\tOfficial'
p55
sS'5984'
p56
S'  \tCouchDB database server\tOfficial'
p57
sS'5985'
p58
S' \t\tWindows PowerShell Default psSession Port[103]\tofficial'
p59
sS'3856'
p60
S'  \tERP Server Application used by F10 Software\tUnofficial'
p61
sS'3999'
p62
S'  \tNorman distributed scanning service\tOfficial'
p63
sS'4117'
p64
S' \t\tWatchGuard System Manager\tUnofficial'
p65
sS'7006'
p66
S' \t\tDefault for BMC Software Control-M/Server and Control-M/Agent for Server-to-Agent, though often changed during installation\tUnofficial'
p67
sS'19150'
p68
S'  \tGkrellm Server\tUnofficial'
p69
sS'23513'
p70
S' Duke Nukem 3D#Source code Duke Nukem Ports\tUnofficial'
p71
sS'1792'
p72
S'  \tMoby[citation needed]\tUnofficial'
p73
sS'41794'
p74
S'  \tCrestron Control Port\tOfficial'
p75
sS'41795'
p76
S'  \tCrestron Control Port\tOfficial'
p77
sS'712'
p78
S' \t\tTopology Broadcast based on Reverse-Path Forwarding routing protocol (TBRPF) (RFC 3684)\tOfficial'
p79
sS'711'
p80
S' \t\tCisco Tag Distribution Protocol[35][36][37]\xe2\x80\x94being replaced by the MPLS Label Distribution Protocol[38]\tOfficial'
p81
sS'3493'
p82
S'  \tNetwork UPS Tools (NUT)\tOfficial'
p83
sS'3333'
p84
S' \t\tCruiseControl.rb[60]\tUnofficial'
p85
sS'5463'
p86
S' \t\tOSIsoft PI Asset Based Analytics\tUnofficial'
p87
sS'1494'
p88
S'  \tCitrix XenApp Independent Computing Architecture (ICA) thin client protocol[47]\tOfficial'
p89
sS'10200'
p90
S" \t\tFRISK Software International's f-protd virus scanning daemon for Unix platforms[144]\tUnofficial"
p91
sS'8886'
p92
S' \t\tPPM3 (Padtec Management Protocol version 3)\tUnofficial'
p93
sS'6159'
p94
S' \t\tARINC 840 EFB Application Control Interface\tOfficial'
p95
sS'655'
p96
S'  \tTinc VPN daemon\tUnofficial'
p97
sS'1700'
p98
S' \tCisco RADIUS Change of Authorization for TrustSec[citation needed]\tUnofficial'
p99
sS'1701'
p100
S' \tLayer 2 Forwarding Protocol (L2F) & Layer 2 Tunneling Protocol (L2TP)\tOfficial'
p101
sS'4730'
p102
S"  \tGearman' job server\tOfficial"
p103
sS'27374'
p104
S' Sub7 default.\tUnofficial'
p105
sS'4172'
p106
S'  \tTeradici PCoIP\tOfficial'
p107
sS'1707'
p108
S' \t\tRomtoc Interactive Modular Multiplayer Client-Server Online Application Interface & Layer 2 Tunneling Protocol (L2TP)\tUnofficial'
p109
sS'9420'
p110
S' \t\tMooseFS distributed file system\xe2\x80\x94master server to chunk servers\tUnofficial'
p111
sS'1528'
p112
S' \t\tOracle database common alternative for listener\tUnofficial'
p113
sS'6653'
p114
S' \t\tOpenflow 1.3\tOfficial'
p115
sS'1064'
p116
S' \t\tlsass.exe\tUnofficial'
p117
sS'5269'
p118
S' \t\tExtensible Messaging and Presence Protocol (XMPP) server connection[87][88]\tOfficial'
p119
sS'7133'
p120
S' \t\tEnemy Territory: Quake Wars\tUnofficial'
p121
sS'8767'
p122
S' \tTeamSpeak\xe2\x80\x94default\tUnofficial'
p123
sS'19302'
p124
S' \tGoogle Talk Voice and Video connections[157]\tUnofficial'
p125
sS'8788'
p126
S' \t\tMapleStory CashShop Game Server\tUnofficial'
p127
sS'5850'
p128
S' \t\tCOMIT SE (PCR)[citation needed]\tUnofficial'
p129
sS'8887'
p130
S' \t\tHyperVM HTTP\tOfficial'
p131
sS'5852'
p132
S' \t\tAdeona client: communications to OpenDHT[citation needed]\tUnofficial'
p133
sS'5222'
p134
S' \t\tExtensible Messaging and Presence Protocol (XMPP) client connection[87][88]\tOfficial'
p135
sS'13720'
p136
S'  \tSymantec NetBackup\xe2\x80\x94bprd (formerly VERITAS)\tOfficial'
p137
sS'1666'
p138
S' \t\tPerforce\tUnofficial'
p139
sS'31438'
p140
S' Rocket Software U2 uvcs\xe2\x80\x94Server Communication Service\tUnofficial'
p141
sS'5912'
p142
S' \t\tDefault for Tidal Enterprise Scheduler agent-Socket used for communication between Master-to-Agent, though can be changed[citation needed]\tUnofficial'
p143
sS'591'
p144
S' \t\tFileMaker 6.0 (and later) Web Sharing (HTTP Alternate, also see port 80)\tOfficial'
p145
sS'593'
p146
S'  \tHTTP RPC Ep Map, Remote procedure call over Hypertext Transfer Protocol, often used by Distributed Component Object Model services and Microsoft Exchange Server\tOfficial'
p147
sS'43595'
p148
S' \t\tRuneScape JAGGRAB servers\tUnofficial'
p149
sS'199'
p150
S'  \tSMUX, SNMP Unix Multiplexer\tOfficial'
p151
sS'1080'
p152
S' \t\tSOCKS proxy\tOfficial'
p153
sS'4321'
p154
S' \t\tReferral Whois (RWhois) Protocol[72]\tOfficial'
p155
sS'194'
p156
S'  \tInternet Relay Chat (IRC)\tOfficial'
p157
sS'4323'
p158
S" \tLincoln Electric's ArcLink/XT[citation needed]\tUnofficial"
p159
sS'5084'
p160
S'  \tEPCglobal Low Level Reader Protocol (LLRP)\tOfficial'
p161
sS'9200'
p162
S' \t\tElasticsearch[136]\xe2\x80\x94default Elasticsearch port\tUnofficial'
p163
sS'3141'
p164
S' \t\tdevpi Python package server[58]\tUnofficial'
p165
sS'2104'
p166
S'  \tzephyr-hm Project Athena Zephyr Notification Service hostmanager\tOfficial'
p167
sS'8691'
p168
S' \t\tUltra Fractal default server port for distributing calculations over network computers\tUnofficial'
p169
sS'13721'
p170
S'  \tSymantec NetBackup\xe2\x80\x94bpdbm (formerly VERITAS)\tOfficial'
p171
sS'4554'
p172
S' \t\tDefault Wesk[73] Self-Hosting Port\tUnofficial'
p173
sS'2827'
p174
S' \t\tI2P Basic Open Bridge API\tUnofficial'
p175
sS'6389'
p176
S' \t\tEMC CLARiiON\tUnofficial'
p177
sS'3386'
p178
S"  \tGTP' 3GPP GSM/UMTS CDR logging protocol\tOfficial"
p179
sS'2541'
p180
S' \tLonTalk/IP\tOfficial'
p181
sS'2540'
p182
S'  \tLNS/OpenLns Remote Server\tOfficial'
p183
sS'2546'
p184
S' LonTalk/IP\tOfficial'
p185
sS'5412'
p186
S'  \tIBM Rational Synergy (Telelogic Synergy) (Continuus CM) Message Router\tOfficial'
p187
sS'5413'
p188
S'  \tWonderware SuiteLink service\tOfficial'
p189
sS'3006'
p190
S' \t\tMiralix SMS Client Connector[citation needed]\tUnofficial'
p191
sS'3025'
p192
S' \t\tnetpd.org[citation needed]\tUnofficial'
p193
sS'2548'
p194
S'  \tEVault data protection services (Vytal Vault)\tOfficial'
p195
sS'12011'
p196
S' \t\tAxence nVision[149]\tUnofficial'
p197
sS'12010'
p198
S' \t\tElevateDB default database port[148]\tUnofficial'
p199
sS'7634'
p200
S' \t\thddtemp\xe2\x80\x94Utility to monitor hard drive temperature\tUnofficial'
p201
sS'3020'
p202
S'  \tCIFS / SMB\tOfficial'
p203
sS'524'
p204
S'  \tNetWare Core Protocol (NCP) is used for a variety things such as access to primary NetWare server resources, Time Synchronization, etc.\tOfficial'
p205
sS'525'
p206
S' \tTimed, Timeserver\tOfficial'
p207
sS'520'
p208
S' \tRouting Information Protocol (RIP)\tOfficial'
p209
sS'521'
p210
S' \tRouting Information Protocol Next Generation (RIPng)\tOfficial'
p211
sS'36963'
p212
S' \tUnreal Software multiplayer games, such as Counter Strike 2D (2D clone of Counter Strike)\tUnofficial'
p213
sS'2262'
p214
S'  \tCoMotion Backup\tOfficial'
p215
sS'7880'
p216
S'  \tPowerSchool Gradebook Server[citation needed]\tUnofficial'
p217
sS'2261'
p218
S'  \tCoMotion Master\tOfficial'
p219
sS'1010'
p220
S' \t\tThinLinc Web Administration\tUnofficial'
p221
sS'31820'
p222
S' \tSyFlo SyFlo license manager\tUnofficial'
p223
sS'1234'
p224
S' \t\tMercurial and git default ports for serving Hyper Text\tUnofficial'
p225
sS'5002'
p226
S' \tDrobo Dashboard[78]\tUnofficial'
p227
sS'1236'
p228
S' \t\tSymantec BindView Control UNIX Default port for  :  management server connections\tUnofficial'
p229
sS'5000'
p230
S' \t\tHeroku console access\tOfficial'
p231
sS'2447'
p232
S'  \tovwdb\xe2\x80\x94OpenView Network Node Manager (NNM) daemon\tOfficial'
p233
sS'1232'
p234
S'  \tfirst-defense, Remote systems monitoring service from Nexum, Inc\tOfficial'
p235
sS'5004'
p236
S'\t\tRTP (Real-time Transport Protocol) media data (RFC 3551, RFC 4571)\tOfficial'
p237
sS'443'
p238
S' \tQUIC (from Chromium) for HTTPS\tUnofficial'
p239
sS'11951'
p240
S' \t\tMurraycoin[147]\tUnofficial'
p241
sS'1337'
p242
S' \t\tWASTE Encrypted File Sharing Program\tUnofficial'
p243
sS'5357'
p244
S'  \tWeb Services for Devices (WSDAPI) (only provided by Windows Vista, Windows 7 and Server 2008)\tUnofficial'
p245
sS'3128'
p246
S' \t\tTatsoft default client connection[citation needed]\tUnofficial'
p247
sS'445'
p248
S' \t\tMicrosoft-DS SMB file sharing\tOfficial'
p249
sS'444'
p250
S'  \tSNPP, Simple Network Paging Protocol (RFC 1568)\tOfficial'
p251
sS'9107'
p252
S' \t\tAstergate-FAX Control Daemon\tOfficial'
p253
sS'6324'
p254
S'  \tHall Research Device discovery and configuration\tOfficial'
p255
sS'108'
p256
S'  \tSNA Gateway Access Server[1]\tOfficial'
p257
sS'109'
p258
S' \t\tPost Office Protocol v2 (POP2)\tOfficial'
p259
sS'11214'
p260
S'  \tmemcached Incoming SSL Proxy\tUnofficial'
p261
sS'8280'
p262
S'  \tHTTP listener for Apache Synapse[126]\tOfficial'
p263
sS'8281'
p264
S' \t\tHTTP Listener for Gatecraft Plugin\tUnofficial'
p265
sS'102'
p266
S' \t\tISO-TSAP (Transport Service Access Point) Class 0 protocol;[14] also used by Digital Equipment Corporation DECnet (Phase V+) over  : /IP\tOfficial'
p267
sS'100'
p268
S' \tCyberGate RAT protocol\tUnofficial'
p269
sS'101'
p270
S' \t\tNIC host name\tOfficial'
p271
sS'8123'
p272
S' \t\tBukkit DynMap Default Webserver Bind Address\tUnofficial'
p273
sS'107'
p274
S' \t\tRemote TELNET Service[15] protocol\tOfficial'
p275
sS'104'
p276
S'  \tACR/NEMA Digital Imaging and Communications in Medicine (DICOM)\tOfficial'
p277
sS'105'
p278
S'  \tCCSO Nameserver Protocol (Qi/Ph)\tOfficial'
p279
sS'902'
p280
S'  \tVMware Server Console (from management console to managed device)\tUnofficial'
p281
sS'903'
p282
S' \t\tVMware Remote Console[42]\tUnofficial'
p283
sS'39'
p284
S'  \tResource Location Protocol[10] (RLP)\xe2\x80\x94used for determining the location of higher level services from hosts on a network\tOfficial'
p285
sS'901'
p286
S'  \tVMware Virtual Infrastructure Client (from managed device to management console)\tUnofficial'
p287
sS'3000'
p288
S' \tDistributed Interactive Simulation (DIS), modifiable default\tUnofficial'
p289
sS'6000'
p290
S' \t\tX11\xe2\x80\x94used between an X client and server over the network\tOfficial'
p291
sS'904'
p292
S' \t\tVMware Server Alternate (if 902 is in use, i.e. SUSE linux)\tUnofficial'
p293
sS'2041'
p294
S' \t\tMail. Ru Agent communication protocol[citation needed]\tUnofficial'
p295
sS'33'
p296
S'  \tDisplay Support Protocol\tOfficial'
p297
sS'6502'
p298
S'  \tNetop Remote Control\tUnofficial'
p299
sS'6001'
p300
S' \tX11\xe2\x80\x94used between an X client and server over the network\tOfficial'
p301
sS'37'
p302
S'  \tTIME protocol\tOfficial'
p303
sS'8883'
p304
S'  \tSecure MQ Telemetry Transport (MQTT over SSL)\tOfficial'
p305
sS'35'
p306
S'  \tAny private printer server protocol\tOfficial'
p307
sS'2049'
p308
S' \tshilp\tOfficial'
p309
sS'641'
p310
S'  \tSupportSoft Nexus Remote Command (control/listening): A proxy gateway connecting remote control traffic\tOfficial'
p311
sS'6379'
p312
S' \t\tRedis key-value data store\tOfficial'
p313
sS'643'
p314
S'  \tSANity\tOfficial'
p315
sS'1534'
p316
S' \tEclipse Target Communication Framework (TCF) agent discovery[48]\tUnofficial'
p317
sS'1533'
p318
S' \t\tIBM Sametime IM\xe2\x80\x94Virtual Places Chat Microsoft SQL Server\tOfficial'
p319
sS'2105'
p320
S'  \tzephyr-hm-srv Project Athena Zephyr Notification Service hm-serv connection (should use port 2102)\tUnofficial'
p321
sS'647'
p322
S' \t\tDHCP Failover protocol[26]\tOfficial'
p323
sS'646'
p324
S'  \tLDP, Label Distribution Protocol, a routing protocol used in MPLS networks\tOfficial'
p325
sS'9418'
p326
S'  \tgit, Git pack transfer service\tOfficial'
p327
sS'648'
p328
S' \t\tRRP (Registry Registrar Protocol)[27]\tOfficial'
p329
sS'4950'
p330
S'  \tCylon Controls UC32 Communications Port\tOfficial'
p331
sS'1109'
p332
S' \t\tKerberos Post Office Protocol (KPOP)\tUnofficial'
p333
sS'2161'
p334
S' \t\tAPC Agent\tOfficial'
p335
sS'433'
p336
S'  \tNNSP, part of Network News Transfer Protocol\tOfficial'
p337
sS'10001'
p338
S' \t\tLantronix UDS-10/UDS100[142] RS-485 to Ethernet Converter default\tUnofficial'
p339
sS'21001'
p340
S' \t\tAMLFilter, AMLFilter Inc. amlf-admin default port\tUnofficial'
p341
sS'2612'
p342
S'  \tQPasa from MQSoftware\tOfficial'
p343
sS'2610'
p344
S' \t\tTrackiT mobile device monitoring\tUnofficial'
p345
sS'8042'
p346
S' \t\tOrthanc\xe2\x80\x94Default HTTP Port for GUI\tUnofficial'
p347
sS'3804'
p348
S'  \tUsed by Harman Professional HiQnet protocol\tOfficial'
p349
sS'11215'
p350
S'  \tmemcached Internal Outgoing SSL Proxy\tUnofficial'
p351
sS'5003'
p352
S'  \tFileMaker\tOfficial'
p353
sS'3800'
p354
S' \t\tUsed by HGG programs[citation needed]\tUnofficial'
p355
sS'4672'
p356
S' \tDefault for older versions of eMule[74]\tUnofficial'
p357
sS'4100'
p358
S' WatchGuard authentication applet default\tUnofficial'
p359
sS'4105'
p360
S'  \tShofar (ShofarNexus)\tOfficial'
p361
sS'3299'
p362
S' \t\tSAP-Router (routing application proxy for SAP R/3)\tUnofficial'
p363
sS'5125'
p364
S'  \tTorgaNET (Micronational Intelligence Darknet)\tUnofficial'
p365
sS'10000'
p366
S' Ericsson Account Manager (avim)[citation needed]\tUnofficial'
p367
sS'10024'
p368
S' \t\tZimbra smtp [mta]\xe2\x80\x94to amavis from postfix[citation needed]\tUnofficial'
p369
sS'6100'
p370
S' \t\tVentrilo This is the authentication port that must be allowed outbound for version 3 of Ventrilo\tOfficial'
p371
sS'3290'
p372
S' \tUsed by VATSIM, the Virtual Air Traffic Simulation network for voice communication.\tUnofficial'
p373
sS'47001'
p374
S' \t\tWinRM\xe2\x80\x94Windows Remote Management Service[172]\tOfficial'
p375
sS'1900'
p376
S' \tMicrosoft SSDP Enables discovery of UPnP devices\tOfficial'
p377
sS'5110'
p378
S' \t\tProRat Server\tUnofficial'
p379
sS'3002'
p380
S' \t\tMiralix CSTA[citation needed]\tUnofficial'
p381
sS'6436'
p382
S' \t\tLeap Motion Websocket Server TLS\tUnofficial'
p383
sS'24554'
p384
S'  \tBINKP, Fidonet mail transfers over  : /IP\tOfficial'
p385
sS'6432'
p386
S' \t\tPgBouncer\xe2\x80\x94A connection pooler for PostgreSQL\tOfficial'
p387
sS'8194'
p388
S' \t\tBloomberg Application[1]\tOfficial'
p389
sS'3455'
p390
S'  \t[RSVP] Reservation Protocol\tOfficial'
p391
sS'30000'
p392
S' MineTest Dedicated Server\tUnofficial'
p393
sS'10302'
p394
S' \t\tVoiceIP-ACS UMP default device provisioning endpoint (SSL)[citation needed]\tUnofficial'
p395
sS'9102'
p396
S'  \tBacula File Daemon\tOfficial'
p397
sS'10003'
p398
S' \t\tForeScout SecureConnector[citation needed]\tUnofficial'
p399
sS'9536'
p400
S'  \tlaes-bf, IP Fabrics Surveillance buffering function\tOfficial'
p401
sS'3516'
p402
S'  \tSmartcard Port\tOfficial'
p403
sS'27000'
p404
S" \t\tFlexNet Publisher's License server (from the range of default ports)\tUnofficial"
p405
sS'7262'
p406
S'  \tCNAP (Calypso Network Access Protocol)\tOfficial'
p407
sS'6571'
p408
S' Windows Live FolderShare client\tUnofficial'
p409
sS'3899'
p410
S' \t\tRemote Administrator\tUnofficial'
p411
sS'6200'
p412
S' \t\tOracle WebCenter Content Portable: Content Server (With Native UI) and Inbound Refinery\tUnofficial'
p413
sS'6201'
p414
S' \t\tOracle WebCenter Content Portable: Admin\tUnofficial'
p415
sS'25003'
p416
S' \t\tTeamware Office client notifier\tOfficial'
p417
sS'6'
S'  \tUnassigned\tOfficial'
p418
sS'16080'
p419
S' \t\tMac OS X Server Web (HTTP) service with performance cache[154]\tUnofficial'
p420
sS'2463'
p421
S'  \tLSI RAID Management formerly Symbios Logic\tOfficial'
p422
sS'23399'
p423
S' Skype Default Protocol\tUnofficial'
p424
sS'27901'
p425
S" \tid Software's Quake II master server\tUnofficial"
p426
sS'33848'
p427
S' \tJenkins Remote access API and Auto-Discovery\tUnofficial'
p428
sS'18092'
p429
S'  \tmemcached Internal CAPI HTTPS for SSL\tUnofficial'
p430
sS'5001'
p431
S' \t\tSynology Inc. Secured Management Console, File Station, Audio Station\tUnofficial'
p432
sS'4732'
p433
S" \tDigital Airways' OHM server's commands to mobile devices (used mainly for binary SMS)\tOfficial"
p434
sS'18104'
p435
S' \t\tRAD PDF Service\tOfficial'
p436
sS'5405'
p437
S'  \tNetSupport Manager\tOfficial'
p438
sS'18200'
p439
S'  \tAudition Online Dance Battle, AsiaSoft Thailand Server\xe2\x80\x94Status/Version Check\tUnofficial'
p440
sS'18201'
p441
S'  \tAudition Online Dance Battle, AsiaSoft Thailand Server\tUnofficial'
p442
sS'99'
p443
S' \t\tWIP Message protocol\tUnofficial'
p444
sS'19315'
p445
S'  \tKeyShadow for K2\xe2\x80\x94KeyAuditor & KeyServer, Sassafras Software Inc.[156] Software Asset Management tools\tOfficial'
p446
sS'5719'
p447
S' \t\tMicrosoft DPM Data Channel (with the protection agent)\tUnofficial'
p448
sS'20000'
p449
S' Usermin, Web-based user tool\tUnofficial'
p450
sS'7001'
p451
S" \t\tDefault for BEA WebLogic Server's HTTP server, though often changed during installation\tUnofficial"
p452
sS'90'
p453
S'  \tPointCast (dotcom)\tUnofficial'
p454
sS'6619'
p455
S'  \todette-ftps, Odette File Transfer Protocol (OFTP) over TLS/SSL\tOfficial'
p456
sS'7002'
p457
S" \t\tDefault for BEA WebLogic Server's HTTPS server, though often changed during installation\tUnofficial"
p458
sS'7005'
p459
S' \t\tDefault for BMC Software Control-M/Server and Control-M/Agent for Agent-to-Server, though often changed during installation\tUnofficial'
p460
sS'9020'
p461
S' \t\tWiT WiT Services\tOfficial'
p462
sS'5402'
p463
S'  \tmftp, Stratacache[94] OmniCast[dead link] content delivery system MFTP file sharing protocol\tOfficial'
p464
sS'5228'
p465
S' \t\tGoogle Play, Android Cloud to Device Messaging Service, Google Cloud Messaging\tUnofficial'
p466
sS'1627'
p467
S' iSketch[citation needed]\tUnofficial'
p468
sS'1997'
p469
S' \t\tChizmo Networks Transfer Tool[citation needed]\tUnofficial'
p470
sS'5223'
p471
S' \t\tExtensible Messaging and Presence Protocol (XMPP) client connection over SSL\tUnofficial'
p472
sS'1998'
p473
S'  \tCisco X.25 over  :  (XOT) service\tOfficial'
p474
sS'1629'
p475
S' \tLonWorks IP tunneling configuration server (ANSI EIA/CEA-852, EN 14908-4)\tOfficial'
p476
sS'1628'
p477
S' \tLonWorks IP tunneling (ANSI EIA/CEA-852, EN 14908-4)\tOfficial'
p478
sS'24842'
p479
S' StepMania: Online: Dance Dance Revolution Simulator\tUnofficial'
p480
sS'10308'
p481
S' Lock-on: Modern Air Combat[citation needed]\tUnofficial'
p482
sS'27015'
p483
S' GoldSrc and Source engine dedicated server port, AppleMobileDeviceService[161]\tUnofficial'
p484
sS'8937'
p485
S' \t\tTransaction Warehouse Data Service (TWDS)\tOfficial'
p486
sS'3962'
p487
S' \tWarframe Online\tUnofficial'
p488
sS'3960'
p489
S' \tWarframe Online\tUnofficial'
p490
sS'12007'
p491
S' \t\tNetCrunch 7 port for connection between NetCrunch 7 Server and Administration Console. This port can be changed [140]\tUnofficial'
p492
sS'8835'
p493
S' Passive Vulnerability Scanner web\tUnofficial'
p494
sS'8834'
p495
S' Nessus web\tUnofficial'
p496
sS'8836'
p497
S' Log Correlation Engine web\tUnofficial'
p498
sS'5814'
p499
S'  \tHewlett-Packard Support Automation (HP OpenView Self-Healing Services)[citation needed]\tOfficial'
p500
sS'27017'
p501
S' mongoDB server port\tUnofficial'
p502
sS'21022'
p503
S' \t\tAMLFilter, AMLFilter Inc. amlf-engine-02 default https port\tUnofficial'
p504
sS'5065'
p505
S'  \tEPICS Channel Access Repeater Beacon[83]\tOfficial'
p506
sS'21021'
p507
S' \t\tAMLFilter, AMLFilter Inc. amlf-engine-02 default http port\tUnofficial'
p508
sS'44444'
p509
S' \t\tLightClaw.TeamServer Asset synchronization[citation needed]\tUnofficial'
p510
sS'5064'
p511
S'  \tEPICS Channel Access Server[82]\tOfficial'
p512
sS'2868'
p513
S'  \tNorman Proprietary Event Protocol NPEP\tOfficial'
p514
sS'554'
p515
S'  \tReal Time Streaming Protocol (RTSP)\tOfficial'
p516
sS'556'
p517
S' \t\tRemotefs, RFS, rfs_server\tOfficial'
p518
sS'3632'
p519
S' \t\tdistributed compiler\tOfficial'
p520
sS'550'
p521
S'  \tnew-rwho, new-who[23]\tOfficial'
p522
sS'3799'
p523
S' \tRADIUS change of authorization\tOfficial'
p524
sS'6891'
p525
S'  \tWindows Live Messenger (File transfer)\tUnofficial'
p526
sS'7676'
p527
S' \t\tAqumin AlphaVision Remote Command Interface[citation needed]\tUnofficial'
p528
sS'7396'
p529
S' \t\tWeb control interface for Folding@home v7.3.6 and later[112]\tUnofficial'
p530
sS'7171'
p531
S' \t\tTibia\tUnofficial'
p532
sS'2949'
p533
S'  \tWAP-pushsecure Multimedia Messaging Service (MMS)\tOfficial'
p534
sS'2948'
p535
S'  \tWAP-push Multimedia Messaging Service (MMS)\tOfficial'
p536
sS'2947'
p537
S' \t\tgpsd GPS daemon\tOfficial'
p538
sS'1313'
p539
S' \t\tXbiim (Canvii server)[citation needed]\tUnofficial'
p540
sS'2945'
p541
S' \tMegaco binary (ASN.1) H.248\tUnofficial'
p542
sS'2944'
p543
S' \tMegaco text H.248\tUnofficial'
p544
sS'152'
p545
S'  \tBackground File Transfer Program (BFTP)[18]\tOfficial'
p546
sS'7670'
p547
S' \t\tBrettspielWelt BSW Boardgame Portal\tUnofficial'
p548
sS'5060'
p549
S'  \tSession Initiation Protocol (SIP)\tOfficial'
p550
sS'2345'
p551
S' \t\tDefault Used by Symon Communications - Symon2KpipeServer -can be changed by administrator to anything\tUnofficial'
p552
sS'1198'
p553
S'  \tThe cajo project Free dynamic transparent distributed computing in Java\tOfficial'
p554
sS'5355'
p555
S'  \tLLMNR\xe2\x80\x94Link-Local Multicast Name Resolution, allows hosts to perform name resolution for hosts on the same local link (only provided by Windows Vista and Server 2008)\tOfficial'
p556
sS'25010'
p557
S' \t\tTeamware Office Agent server\tOfficial'
p558
sS'5353'
p559
S' \tMulticast DNS (mDNS)\tOfficial'
p560
sS'1311'
p561
S' \t\tDell OpenManage HTTPS\tOfficial'
p562
sS'5351'
p563
S'  \tNAT Port Mapping Protocol\xe2\x80\x94client-requested configuration for inbound connections through network address translators\tOfficial'
p564
sS'1058'
p565
S'  \tnim, IBM AIX Network Installation Manager (NIM)\tOfficial'
p566
sS'1059'
p567
S'  \tnimreg, IBM AIX Network Installation Manager (NIM)\tOfficial'
p568
sS'2224'
p569
S' \t\tESET Remote administrator [52]\tUnofficial'
p570
sS'2225'
p571
S' \t\tESET Remote administrator [52]\tUnofficial'
p572
sS'2222'
p573
S' \t\tDirectAdmin default'
p574
sS'1194'
p575
S'  \tOpenVPN\tOfficial'
p576
sS'2220'
p577
S'  \tNetIQ End2End\tOfficial'
p578
sS'2221'
p579
S' \t\tESET Anti-virus updates [52]\tUnofficial'
p580
sS'1'
S'  \t :  Port Service Multiplexer ( : MUX)\tOfficial'
p581
sS'37777'
p582
S' \t\tDigital Video Recorder hardware[citation needed]\tUnofficial'
p583
sS'32123'
p584
S' \t\tx3Lobby Used by x3Lobby, an internet application.\tUnofficial'
p585
sS'1755'
p586
S'  \tMicrosoft Media Services (MMS, ms-streaming)\tOfficial'
p587
sS'9119'
p588
S'  \tMXit Instant Messenger\tOfficial'
p589
sS'1176'
p590
S' \t\tPerceptive Automation[dead link] Indigo[dead link] Home automation server\xe2\x80\x94configuration and control access\tOfficial'
p591
sS'17500'
p592
S'  \tDropbox LanSync Protocol (db-lsp); used to synchronize file catalogs between Dropbox clients on a local network.\tOfficial'
p593
sS'143'
p594
S' \t\tInternet Message Access Protocol (IMAP)\xe2\x80\x94management of email messages\tOfficial'
p595
sS'6970'
p596
S'  \tBitTorrent part of full range of ports used most often\tUnofficial'
p597
sS'5459'
p598
S' \t\tOSIsoft PI Asset Framework 2.x Client Access\tUnofficial'
p599
sS'1270'
p600
S'  \tMicrosoft System Center Operations Manager (SCOM) (formerly Microsoft Operations Manager (MOM)) agent\tOfficial'
p601
sS'9110'
p602
S' \tSSMP Message protocol\tUnofficial'
p603
sS'20702'
p604
S' \t\tPrecise TPM Listener Agent\tUnofficial'
p605
sS'24444'
p606
S' NetBeans integrated development environment\tUnofficial'
p607
sS'9443'
p608
S' \t\tNCSA Brown Dog Data Tilling Service\tUnofficial'
p609
sS'5678'
p610
S' \tMikrotik RouterOS Neighbor Discovery Protocol (MNDP)\tUnofficial'
p611
sS'4505'
p612
S' \t\tSalt master\tUnofficial'
p613
sS'34000'
p614
S' MasterPort\xe2\x80\x94WarZ\tUnofficial'
p615
sS'4506'
p616
S' \t\tSalt master\tUnofficial'
p617
sS'2703'
p618
S" \t\tVipul's Razor distributed, collaborative, spam-detection-and-filtering network\tUnofficial"
p619
sS'22349'
p620
S' \t\tWolfson Microelectronics WISCEBridge Debug Protocol[159]\tUnofficial'
p621
sS'2375'
p622
S' \t\tDocker REST API (plain)\tOfficial'
p623
sS'3702'
p624
S'  \tWeb Services Dynamic Discovery (WS-Discovery), used by various components of Windows Vista and later\tOfficial'
p625
sS'1886'
p626
S' \t\tLeonardo over IP Pro2col Ltd\tUnofficial'
p627
sS'15567'
p628
S' \tBattlefield Vietnam and mods\tUnofficial'
p629
sS'1883'
p630
S'  \tMQ Telemetry Transport (MQTT), formerly known as MQIsdp (MQSeries SCADA protocol)\tOfficial'
p631
sS'2376'
p632
S' \t\tDocker REST API (SSL)\tOfficial'
p633
sS'2121'
p634
S' \t\tFTP proxy[citation needed]\tUnofficial'
p635
sS'43047'
p636
S' \t\tThe\xc3\xb2sMessenger second port for service The\xc3\xb2sMessenger[citation needed]\tUnofficial'
p637
sS'3119'
p638
S' \t\tD2000 Entis/Actis Application server\tOfficial'
p639
sS'2082'
p640
S' \t\tCPanel default\tUnofficial'
p641
sS'2083'
p642
S' \t\tCPanel default SSL\tUnofficial'
p643
sS'944'
p644
S' \tNetwork File System Service\tUnofficial'
p645
sS'2086'
p646
S' \t\tWebHost Manager default\tUnofficial'
p647
sS'2087'
p648
S' \t\tWebHost Manager default SSL\tUnofficial'
p649
sS'4662'
p650
S' \t\tDefault for older versions of eMule[74]\tUnofficial'
p651
sS'514'
p652
S' \tSyslog\xe2\x80\x94used for system logging\tOfficial'
p653
sS'34001'
p654
S' ClientPort\xe2\x80\x94WarZ\tUnofficial'
p655
sS'2226'
p656
S' \t\tESET Remote administrator [52]\tUnofficial'
p657
sS'1470'
p658
S' \t\tSolarwinds Kiwi Log Server\tOfficial'
p659
sS'6445'
p660
S'  \tSun Grid Engine\xe2\x80\x94Execution Service\tOfficial'
p661
sS'688'
p662
S'  \tREALM-RUSD (ApplianceWare Server Appliance Management Protocol)\tOfficial'
p663
sS'31314'
p664
S' \t\telectric imp node<>server communication (TLS)\tUnofficial'
p665
sS'7547'
p666
S'  \tCPE WAN Management Protocol (CWMP) Technical Report 069\tOfficial'
p667
sS'8642'
p668
S' \t\tLotus Traveller[citation needed]\tUnofficial'
p669
sS'8768'
p670
S' \tTeamSpeak\xe2\x80\x94alternate\tUnofficial'
p671
sS'2535'
p672
S' \t\tMADCAP\xe2\x80\x94Multicast Address Dynamic Client Allocation Protocol\tOfficial'
p673
sS'8501'
p674
S' \t\t[3] DukesterX \xe2\x80\x94default[citation needed]\tUnofficial'
p675
sS'1306'
p676
S'  \tBoomerang\tOfficial'
p677
sS'27950'
p678
S' \tOpenArena outgoing\tUnofficial'
p679
sS'1301'
p680
S' \t\tPalmer Performance OBDNet\tUnofficial'
p681
sS'27960'
p682
S" \tActivision's Enemy Territory and id Software's Quake III Arena, Quake III and Quake Live and some ioquake3 derived games, such as Urban Terror (OpenArena incoming)\tUnofficial"
p683
sS'5454'
p684
S' \t\tOSIsoft PI Asset Framework 1.x Client Access\tUnofficial'
p685
sS'10201'
p686
S" \t\tFRISK Software International's f-protd virus scanning daemon for Unix platforms[144]\tUnofficial"
p687
sS'1309'
p688
S' \t\tAltera Quartus jtagd\tOfficial'
p689
sS'2223'
p690
S' \tMicrosoft Office OS X antipiracy network monitor[citation needed]\tUnofficial'
p691
sS'5741'
p692
S'  \tIDA Discover Port 1\tOfficial'
p693
sS'5742'
p694
S'  \tIDA Discover Port 2\tOfficial'
p695
sS'137'
p696
S'  \tNetBIOS NetBIOS Name Service\tOfficial'
p697
sS'6101'
p698
S' \t\tBackup Exec Agent Browser[citation needed]\tUnofficial'
p699
sS'135'
p700
S'  \tMicrosoft EPMAP (End Point Mapper), \tUnofficial'
p701
sS'9987'
p702
S' \tTeamSpeak 3 server default (voice) port (for the conflicting service see the IANA list)\tUnofficial'
p703
sS'4224'
p704
S' \t\tCisco Audio Session Tunneling[citation needed]\tUnofficial'
p705
sS'139'
p706
S'  \tNetBIOS NetBIOS Session Service\tOfficial'
p707
sS'138'
p708
S'  \tNetBIOS NetBIOS Datagram Service\tOfficial'
p709
sS'8989'
p710
S' \t\tSTEP Bible : Scripture Tools for Every Person\tUnofficial'
p711
sS'491'
p712
S' \t\tGO-Global remote access and application publishing software\tUnofficial'
p713
sS'8011'
p714
S' \t\tHTTP/ :  Symon Communications Event and Query Engine[citation needed]\tUnofficial'
p715
sS'8010'
p716
S' \t\tXMPP File transfers\tUnofficial'
p717
sS'24'
p718
S'  \tPriv-mail : any private mail system.\tOfficial'
p719
sS'25'
p720
S'  \tSimple Mail Transfer Protocol (SMTP)\xe2\x80\x94used for e-mail routing between mail servers\tOfficial'
p721
sS'26'
p722
S'  \tUnassigned\tOfficial'
p723
sS'27'
p724
S'  \tNSW User System FE\tOfficial'
p725
sS'20'
p726
S'  \tFTP data transfer\tOfficial'
p727
sS'21'
p728
S' , SCTP\t : \tFTP control (command)\tOfficial'
p729
sS'22'
p730
S' , SCTP\t : \tSecure Shell (SSH)\xe2\x80\x94used for secure logins, file transfers (scp, sftp) and port forwarding\tOfficial'
p731
sS'23'
p732
S'  \tTelnet protocol\xe2\x80\x94unencrypted text communications\tOfficial'
p733
sS'2593'
p734
S'  \tRunUO\xe2\x80\x94Ultima Online server\tUnofficial'
p735
sS'29'
p736
S'  \tMSG ICP\tOfficial'
p737
sS'15345'
p738
S'  \tXPilot Contact\tOfficial'
p739
sS'2156'
p740
S' \tTalari Reliable Protocol\tOfficial'
p741
sS'4982'
p742
S'  \tSolar Data Log (JK client app for PV solar inverters)[citation needed]\tUnofficial'
p743
sS'13337'
p744
S'  \t\xc3\x86therNet peer-to-peer networking[citation needed]\tUnofficial'
p745
sS'401'
p746
S'  \tUPS Uninterruptible Power Supply\tOfficial'
p747
sS'2401'
p748
S' \t\tCVS version control system password-based server\tOfficial'
p749
sS'6240'
p750
S' \t\tOracle WebCenter Content Portable: Capture\tUnofficial'
p751
sS'2014'
p752
S' \t\tRemoticus\tUnofficial'
p753
sS'6244'
p754
S'  \tOracle WebCenter Content Portable: Content Server\xe2\x80\x94Intradoc Socket port\tUnofficial'
p755
sS'2010'
p756
S' \t\tArtemis: Spaceship Bridge Simulator default port\tUnofficial'
p757
sS'25828'
p758
S'  \tDarknessBlade Network.\tUnofficial'
p759
sS'6227'
p760
S' \t\tOracle WebCenter Content Portable: JavaDB\tUnofficial'
p761
sS'4610'
p762
S' \t\tQualiSystems TestShell Suite Services\tUnofficial'
p763
sS'3835'
p764
S' \t\tUsed by RedSeal Networks client/server connection[citation needed]\tUnofficial'
p765
sS'6072'
p766
S' \t\tiOperator Protocol Signal Port[citation needed]\tUnofficial'
p767
sS'3830'
p768
S'  \tSystem Management Agent, developed and used by Cerner to monitor and manage solutions\tOfficial'
p769
sS'3182'
p770
S'  \tHuman Inference Suite6 AJP\tUnofficial'
p771
sS'2598'
p772
S' \t\tnew ICA (Citrix) \xe2\x80\x94when Session Reliability is enabled,  :  port 2598 replaces port 1494[47]\tUnofficial'
p773
sS'6225'
p774
S' \t\tOracle WebCenter Content Portable: Content Server Web UI\tUnofficial'
p775
sS'9025'
p776
S' \t\tWiT WiT Services\tOfficial'
p777
sS'2599'
p778
S' \t\tSonicWALL anti-spam traffic between Remote Analyzer (RA) and Control Center (CC)\tUnofficial'
p779
sS'8332'
p780
S' \t\tBitcoin JSON-RPC server[128]\tUnofficial'
p781
sS'8333'
p782
S' \t\tVMware Server Management User Interface[124] (secure Web interface).[125] See also port 8222\tUnofficial'
p783
sS'8330'
p784
S' \t\tMultiBit HD, [1]\tUnofficial'
p785
sS'8331'
p786
S' \t\tMultiBit, [2]\tUnofficial'
p787
sS'4035'
p788
S'  \tIBM Rational Developer for System z Remote System Explorer Daemon\tUnofficial'
p789
sS'8337'
p790
S' \t\tVisualSVN Distributed File System Service (VDFS)[130]\tUnofficial'
p791
sS'35357'
p792
S' \t\tOpenStack ID Service\tOfficial'
p793
sS'10116'
p794
S'  \tNetIQ VoIP Assessor\tOfficial'
p795
sS'11576'
p796
S' IPStor Server management communication\tUnofficial'
p797
sS'10114'
p798
S'  \tNetIQ Qcheck\tOfficial'
p799
sS'6715'
p800
S' \t\tAberMUD and derivatives default port\tUnofficial'
p801
sS'5999'
p802
S' \t\tCVSup file update tool[105]\tOfficial'
p803
sS'10113'
p804
S'  \tNetIQ Endpoint\tOfficial'
p805
sS'10110'
p806
S'  \tNMEA 0183 Navigational Data. Transport of NMEA 0183 sentences over  :  or  : \tOfficial'
p807
sS'32400'
p808
S'  \tUsed for Plex Media Server connections and media streams\tUnofficial'
p809
sS'3562'
p810
S'  \tSDBProxy Simple DataBase middle-ware and proxy\tOfficial'
p811
sS'7473'
p812
S' \t\tRise: The Vieneo Province\tOfficial'
p813
sS'33982'
p814
S'  \tDezta software\tUnofficial'
p815
sS'7474'
p816
S' \t\tNeo4J Server webadmin[113]\tOfficial'
p817
sS'11371'
p818
S' \t\tOpenPGP HTTP key server\tOfficial'
p819
sS'9030'
p820
S' \t\tTor often used\tUnofficial'
p821
sS'7312'
p822
S' \tSibelius License Server\tUnofficial'
p823
sS'3841'
p824
S' \t\tShipRush client/server communication\tOfficial'
p825
sS'4486'
p826
S'  \tIntegrated Client Message Service (ICMS)\tOfficial'
p827
sS'829'
p828
S' \t\tCertificate Management Protocol[40]\tUnofficial'
p829
sS'33434'
p830
S'  \ttraceroute\tOfficial'
p831
sS'29900'
p832
S' Nintendo Wi-Fi Connection[164]\tUnofficial'
p833
sS'371'
p834
S'  \tClearCase albd\tOfficial'
p835
sS'370'
p836
S" \tsecurecast1\xe2\x80\x94Outgoing packets to NAI's SecureCast servers[21]As of 2000\tUnofficial"
p837
sS'7778'
p838
S' \t\tBad Trip MUD[citation needed]\tUnofficial'
p839
sS'9001'
p840
S' \t\tHSQLDB default port\tUnofficial'
p841
sS'6566'
p842
S' \t\tSANE (Scanner Access Now Easy)\xe2\x80\x94SANE network scanner daemon[108]\tOfficial'
p843
sS'8083'
p844
S' \tTransporter Connected Data, Inc.\tUnofficial'
p845
sS'706'
p846
S' \t\tSecure Internet Live Conferencing (SILC)\tOfficial'
p847
sS'15000'
p848
S' \thydap, Hypack Hydrographic Software Packages Data Acquisition\tOfficial'
p849
sS'700'
p850
S' \t\tEPP (Extensible Provisioning Protocol), a protocol for communication between domain name registries and registrars (RFC 5734)\tOfficial'
p851
sS'701'
p852
S' \t\tLMP (Link Management Protocol (Internet)),[31] a protocol that runs between a pair of nodes and is used to manage traffic engineering (TE) links\tOfficial'
p853
sS'702'
p854
S' \t\tIRIS[32][33] (Internet Registry Information Service) over BEEP (Blocks Extensible Exchange Protocol)[34] (RFC 3983)\tOfficial'
p855
sS'8070'
p856
S' \t\tOpenERP Legacy netrpc protocol\tUnofficial'
p857
sS'8112'
p858
S' \t\tPAC Pacifica Coin\tUnofficial'
p859
sS'88'
p860
S'  \tKerberos\xe2\x80\x94authentication system\tOfficial'
p861
sS'5498'
p862
S' \t\tHotline tracker server connection\tUnofficial'
p863
sS'5499'
p864
S' \tHotline tracker server discovery\tUnofficial'
p865
sS'82'
p866
S' \tTorpark\xe2\x80\x94Control\tUnofficial'
p867
sS'5495'
p868
S' \t\tIBM Cognos TM1 Admin server\tUnofficial'
p869
sS'80'
p870
S' \tQUIC (from Chromium) for HTTP\tUnofficial'
p871
sS'81'
p872
S' \t\tTorpark\xe2\x80\x94Onion routing\tUnofficial'
p873
sS'3300'
p874
S'  \tDebate Gopher backend database system[citation needed]\tUnofficial'
p875
sS'4045'
p876
S'  \tSolaris lockd NFS lock daemon/manager\tUnofficial'
p877
sS'6783'
p878
S' \t\tSplashtop Remote server broadcast\tUnofficial'
p879
sS'9875'
p880
S' \t\tClub Penguin Disney online game for kids\tUnofficial'
p881
sS'6785'
p882
S' \t\tSplashtop Remote server broadcast\tUnofficial'
p883
sS'1716'
p884
S" \t\tAmerica's Army Massively multiplayer online game (MMO)\tUnofficial"
p885
sS'2301'
p886
S' \t\tHP System Management Redirect to port 2381[citation needed]\tUnofficial'
p887
sS'1719'
p888
S' \tH.323 Registration and alternate communication\tOfficial'
p889
sS'2302'
p890
S' \tHalo: Combat Evolved multiplayer\tUnofficial'
p891
sS'2305'
p892
S' \tArmA multiplayer (default for VoN) (default port for game +3)\tUnofficial'
p893
sS'9389'
p894
S'  \tadws, Microsoft AD DS Web Services, Powershell uses this port\tOfficial'
p895
sS'6665'
p896
S' \t\tInternet Relay Chat (IRC)\tOfficial'
p897
sS'19132'
p898
S' \tStandard Minecraft Pocket Edition Multiplayer Server Port\tUnofficial'
p899
sS'7'
S'  \tEcho Protocol\tOfficial'
p900
sS'33330'
p901
S' \tFMAudit\tUnofficial'
p902
sS'18010'
p903
S' \t\tSuper Dancer Online Extreme(SDO-X)\xe2\x80\x94CiB Net Station Malaysia Server[citation needed]\tUnofficial'
p904
sS'26000'
p905
S' \tXonotic, an open source arena shooter\tOfficial'
p906
sS'587'
p907
S' \t\te-mail message submission[24] (SMTP)\tOfficial'
p908
sS'3667'
p909
S'  \tInformation Exchange\tOfficial'
p910
sS'24800'
p911
S' Synergy: keyboard/mouse sharing software\tUnofficial'
p912
sS'16482'
p913
S' CISCO Default RTP MAX\tofficial'
p914
sS'18180'
p915
S' \t\tDART Reporting server[citation needed]\tUnofficial'
p916
sS'8200'
p917
S' \t\tGoToMyPC\tUnofficial'
p918
sS'7624'
p919
S'  \tInstrument Neutral Distributed Interface\tOfficial'
p920
sS'2484'
p921
S'  \tOracle database listening for SSL client connections to the listener\tOfficial'
p922
sS'12998'
p923
S' \tTakenaka RDI Mirror World on SecondLife[citation needed]\tUnofficial'
p924
sS'2055'
p925
S'  \tIliad-Odyssey Protocol\tOfficial'
p926
sS'41823'
p927
S'  \tMurealm Client[citation needed]\tUnofficial'
p928
sS'32000'
p929
S' \tFlightGear multiplayer, experimental 2nd port (working code mod submitted to main fgms developer 2015-III-04 for evaluation)[76]\tUnofficial'
p930
sS'14567'
p931
S' \tBattlefield 1942 and mods\tUnofficial'
p932
sS'1434'
p933
S'  \tMSSQL (Microsoft SQL Server database management system) Monitor\tOfficial'
p934
sS'27500'
p935
S" \tid Software's QuakeWorld\tUnofficial"
p936
sS'7047'
p937
S' \t\tZimbra conversion server\tUnofficial'
p938
sS'1433'
p939
S' \t\tMSSQL (Microsoft SQL Server database management system) Server\tOfficial'
p940
sS'12008'
p941
S' \t\tNetCrunch default connection broker port [140]\tUnofficial'
p942
sS'1431'
p943
S" \t\tReverse Gossip Transport Protocol (RGTP), used to access a General-purpose Reverse-Ordered Gossip Gathering System (GROGGS) bulletin board, such as that implemented on the Cambridge University's Phoenix system\tOfficial"
p944
sS'7144'
p945
S' \t\tPeercast[citation needed]\tUnofficial'
p946
sS'7145'
p947
S' \t\tPeercast[citation needed]\tUnofficial'
p948
sS'8075'
p949
S' \t\tKilling Floor\tUnofficial'
p950
sS'2056'
p951
S' \tCivilization 4 multiplayer\tUnofficial'
p952
sS'3017'
p953
S' \t\tMiralix IVR and Voicemail[citation needed]\tUnofficial'
p954
sS'28001'
p955
S' Starsiege: Tribes Common/default Tribes v.1 Server\tUnofficial'
p956
sS'28000'
p957
S' Bitfighter Common/default Bitfighter Server\tUnofficial'
p958
sS'27016'
p959
S' Magicka server port\tUnofficial'
p960
sS'518'
p961
S' \tNTalk\tOfficial'
p962
sS'48653'
p963
S'  \tRobot Raconteur transport[173]\tOfficial'
p964
sS'43048'
p965
S' \t\tThe\xc3\xb2sMessenger third port for service The\xc3\xb2sMessenger[citation needed]\tUnofficial'
p966
sS'2379'
p967
S' \t\tKGS Go Server\tUnofficial'
p968
sS'510'
p969
S'  \tFirstClass Protocol (FCP), used by FirstClass client/server groupware system\tOfficial'
p970
sS'513'
p971
S' \tWho[23]\tOfficial'
p972
sS'512'
p973
S' \tcomsat, together with biff\tOfficial'
p974
sS'515'
p975
S' \t\tLine Printer Daemon\xe2\x80\x94print service\tOfficial'
p976
sS'1002'
p977
S' \t\tOpsware agent (aka cogbot)\tUnofficial'
p978
sS'517'
p979
S' \tTalk\tOfficial'
p980
sS'4500'
p981
S' \tIPSec NAT Traversal (RFC 3947)\tOfficial'
p982
sS'623'
p983
S' \tASF Remote Management and Control Protocol (ASF-RMCP)\tOfficial'
p984
sS'8500'
p985
S'  \tColdFusion Macromedia/Adobe ColdFusion default and Duke Nukem 3D\xe2\x80\x94default\tUnofficial'
p986
sS'1223'
p987
S'  \tTGP, TrulyGlobal Protocol, also known as "The Gur Protocol" (named for Gur Kimchi of TrulyGlobal)\tOfficial'
p988
sS'625'
p989
S' \t\tOpen Directory Proxy (ODProxy)\tUnofficial'
p990
sS'1220'
p991
S' \t\tQuickTime Streaming Server administration\tOfficial'
p992
sS'8074'
p993
S' \t\tGadu-Gadu\tUnofficial'
p994
sS'1341'
p995
S'  \tQubes (Manufacturing Execution System)\tOfficial'
p996
sS'9535'
p997
S'  \tmngsuite, LANDesk Management Suite Remote Control\tOfficial'
p998
sS'4502'
p999
S' \t\tMicrosoft Silverlight connectable ports under non-elevated trust\tOfficial'
p1000
sS'1344'
p1001
S' \t\tInternet Content Adaptation Protocol\tOfficial'
p1002
sS'1085'
p1003
S'  \tWebObjects\tOfficial'
p1004
sS'10301'
p1005
S' \t\tVoiceIP-ACS UMP default device provisioning endpoint[citation needed]\tUnofficial'
p1006
sS'5031'
p1007
S'  \tAVM CAPI-over- :  (ISDN over Ethernet tunneling)[citation needed]\tUnofficial'
p1008
sS'8291'
p1009
S' \t\tWinbox\xe2\x80\x94Default on a MikroTik RouterOS for a Windows application used to administer MikroTik RouterOS[127]\tUnofficial'
p1010
sS'8118'
p1011
S' \t\tPrivoxy\xe2\x80\x94advertisement-filtering Web proxy\tOfficial'
p1012
sS'15556'
p1013
S'  \tJeex.EU Artesia (direct client-to-db.service)\tOfficial'
p1014
sS'5667'
p1015
S' \t\tNSCA (Nagios)\tUnofficial'
p1016
sS'5666'
p1017
S' \t\tNRPE (Nagios)\tUnofficial'
p1018
sS'179'
p1019
S' \t\tBGP (Border Gateway Protocol)\tOfficial'
p1020
sS'8243'
p1021
S'  \tHTTPS listener for Apache Synapse[126]\tOfficial'
p1022
sS'177'
p1023
S'  \tX Display Manager Control Protocol (XDMCP)\tOfficial'
p1024
sS'175'
p1025
S' \t\tVMNET (IBM z/VM, z/OS & z/VSE\xe2\x80\x94Network Job Entry (NJE))\tOfficial'
p1026
sS'8111'
p1027
S' \t\tJOSM Remote Control\tUnofficial'
p1028
sS'8116'
p1029
S' \tCheck Point Cluster Control Protocol\tUnofficial'
p1030
sS'7915'
p1031
S' \t\tDefault for YSFlight server[115]\tUnofficial'
p1032
sS'170'
p1033
S' \t\tPrint-srv, Network PostScript\tOfficial'
p1034
sS'11155'
p1035
S'  \tTunngle\tUnofficial'
p1036
sS'2053'
p1037
S' \t\tknetd Kerberos de-multiplexor\tUnofficial'
p1038
sS'6110'
p1039
S'  \tsoftcm, HP Softbench CM\tOfficial'
p1040
sS'973'
p1041
S' \tNetwork File System over IPv6 Service\tUnofficial'
p1042
sS'7717'
p1043
S' \tKilling Floor\tUnofficial'
p1044
sS'657'
p1045
S'  \tIBM RMC (Remote monitoring and Control) protocol, used by System p5 AIX Integrated Virtualization Manager (IVM)[29] and Hardware Management Console to connect managed logical partitions (LPAR) to enable dynamic partition reconfiguration\tOfficial'
p1046
sS'3690'
p1047
S'  \tSubversion (SVN) version control system\tOfficial'
p1048
sS'25570'
p1049
S' Manic Digger default single player port\tUnofficial'
p1050
sS'6522'
p1051
S' \t\tGobby (and other libobby-based software)\tUnofficial'
p1052
sS'4949'
p1053
S' \t\tMunin Resource Monitoring Tool\tOfficial'
p1054
sS'654'
p1055
S' \t\tMedia Management System (MMS) Media Management Protocol (MMP)[28]\tOfficial'
p1056
sS'1503'
p1057
S'  \tWindows Live Messenger (Whiteboard and Application Sharing)\tUnofficial'
p1058
sS'1500'
p1059
S' \t\tNetGuard GuardianPro firewall (NT4-based) Remote Management\tUnofficial'
p1060
sS'2'
S'  \tCompressNET[5] Management Utility[6]\tOfficial'
p1061
sS'653'
p1062
S'  \tSupportSoft Nexus Remote Command (data): A proxy gateway connecting remote control traffic\tOfficial'
p1063
sS'651'
p1064
S'  \tIEEE-MMS\tOfficial'
p1065
sS'8089'
p1066
S' \t\tAVM Fritzbox for automatic tr069 configuration.\tUnofficial'
p1067
sS'2115'
p1068
S'  \tMIS Department\tUnofficial'
p1069
sS'8014'
p1070
S'  \tPerseus SDR Receiver default remote connection port[citation needed]\tUnofficial'
p1071
sS'8400'
p1072
S'  \tcvp, CommVault Unified Data Management\tOfficial'
p1073
sS'8601'
p1074
S' \t\tWavestore CCTV protocol[131]\tUnofficial'
p1075
sS'31337'
p1076
S' \t\tBack Orifice\xe2\x80\x94remote administration tool (often Trojan horse)\tUnofficial'
p1077
sS'9333'
p1078
S' \t\tLitecoin\tUnofficial'
p1079
sS'9293'
p1080
S' \t\tSony PlayStation RemotePlay[137]\tUnofficial'
p1081
sS'3872'
p1082
S' \t\tOracle Enterprise Manager Remote Agent\tOfficial'
p1083
sS'18506'
p1084
S'  \tAudition Online Dance Battle, Nexon Server\tUnofficial'
p1085
sS'9339'
p1086
S' \t\tClash of Clans, a mobile freemium strategy video game\tUnofficial'
p1087
sS'9091'
p1088
S' \t\tTransmission (BitTorrent client) Web Interface\tUnofficial'
p1089
sS'3527'
p1090
S' \tMicrosoft Message Queuing\tOfficial'
p1091
sS'5108'
p1092
S' \t\tVPOP3 Mail Server Webmail[citation needed]\tUnofficial'
p1093
sS'5109'
p1094
S'  \tVPOP3 Mail Server Status[citation needed]\tUnofficial'
p1095
sS'6541'
p1096
S' \t\tMirrorOp2 (default)\tUnofficial'
p1097
sS'10010'
p1098
S' \t\tOpen Object Rexx (ooRexx) rxapi daemon\tOfficial'
p1099
sS'3283'
p1100
S' \t\tApple Remote Desktop reporting (officially Net Assistant, referring to an earlier product)\tOfficial'
p1101
sS'5107'
p1102
S' \t\tA-Talk Remote server connection[citation needed]\tUnofficial'
p1103
sS'5104'
p1104
S' \t\tIBM Tivoli Framework NetCOOL/Impact[85] HTTP Service\tUnofficial'
p1105
sS'13075'
p1106
S' \t\tDefault[152] for BMC Software Control-M/Enterprise Manager Corba communication, though often changed during installation\tOfficial'
p1107
sS'11'
p1108
S'  \tActive Users (systat service)[8][9]\tOfficial'
p1109
sS'10'
p1110
S'  \tUnassigned\tOfficial'
p1111
sS'13'
p1112
S'  \tDaytime Protocol (RFC 867)\tOfficial'
p1113
sS'12'
p1114
S'  \tUnassigned\tOfficial'
p1115
sS'15'
p1116
S'  \tPreviously netstat service[8]\tUnofficial'
p1117
sS'14'
p1118
S'  \tUnassigned\tOfficial'
p1119
sS'17'
p1120
S'  \tQuote of the Day\tOfficial'
p1121
sS'16'
p1122
S'  \tUnassigned\tOfficial'
p1123
sS'861'
p1124
S'  \tOWAMP control (RFC 4656)\tOfficial'
p1125
sS'18'
p1126
S'  \tMessage Send Protocol\tOfficial'
p1127
sS'862'
p1128
S'  \tTWAMP control (RFC 5357)\tOfficial'
p1129
sS'27036'
p1130
S' Steam In-Home Streaming (Only LAN)\tUnofficial'
p1131
sS'13195'
p1132
S'  \tOntolux Ontolux 2D\tUnofficial'
p1133
sS'4664'
p1134
S' \t\tGoogle Desktop Search\tUnofficial'
p1135
sS'16250'
p1136
S' \t\tOracle WebCenter Content: Inbound Refinery (formerly known as Oracle Universal Content Management). Port though often changed during installation\tUnofficial'
p1137
sS'12222'
p1138
S' \tLight Weight Access Point Protocol (LWAPP) LWAPP data (RFC 5412)\tOfficial'
p1139
sS'12223'
p1140
S' \tLight Weight Access Point Protocol (LWAPP) LWAPP control (RFC 5412)\tOfficial'
p1141
sS'2698'
p1142
S'  \tCitel / MCK IVPIP\tOfficial'
p1143
sS'27014'
p1144
S' Source engine dedicated server port (rare)\tUnofficial'
p1145
sS'7401'
p1146
S'  \tRTPS (Real Time Publish Subscribe) DDS User-Traffic\tOfficial'
p1147
sS'2080'
p1148
S'  \tAutodesk NLM (FLEXlm)\tOfficial'
p1149
sS'7402'
p1150
S'  \tRTPS (Real Time Publish Subscribe) DDS Meta-Traffic\tOfficial'
p1151
sS'25826'
p1152
S' \tcollectd default port[160]\tUnofficial'
p1153
sS'8880'
p1154
S' \t\tWin Media Streamer to Server SOAP connector default\tUnofficial'
p1155
sS'3900'
p1156
S' \t\tudt_os, IBM UniData UDT OS[65]\tOfficial'
p1157
sS'9800'
p1158
S' WebCT e-learning portal\tUnofficial'
p1159
sS'888'
p1160
S' \t\tcddbp, CD DataBase (CDDB) protocol (CDDBP), IBM Endpoint Manager Remote Control\tUnofficial'
p1161
sS'8778'
p1162
S' \t\tEPOS Speech Synthesis System\tUnofficial'
p1163
sS'1972'
p1164
S'  \tInterSystems Cach\xc3\xa9\tOfficial'
p1165
sS'20014'
p1166
S' \t\tDART Reporting server[citation needed]\tUnofficial'
p1167
sS'9050'
p1168
S' \t\tTor\tUnofficial'
p1169
sS'9051'
p1170
S' \t\tTor\tUnofficial'
p1171
sS'6622'
p1172
S'  \tMulticast FTP\tOfficial'
p1173
sS'3233'
p1174
S'  \tWhiskerControl research control protocol\tOfficial'
p1175
sS'3235'
p1176
S'  \tGalaxy Network Service (Gateway Ticketing Systems)\tOfficial'
p1177
sS'4000'
p1178
S'  \tDiablo II game\tUnofficial'
p1179
sS'4001'
p1180
S' \t\tMicrosoft Ants game\tUnofficial'
p1181
sS'1967'
p1182
S' \tCisco IOS IP Service Level Agreements (IP SLAs) Control Protocol[citation needed]\tUnofficial'
p1183
sS'5190'
p1184
S' \t\tICQ and AOL Instant Messenger\tOfficial'
p1185
sS'4007'
p1186
S' \t\tPrintBuzzer printer monitoring socket server[citation needed]\tUnofficial'
p1187
sS'8585'
p1188
S' \t\tMapleStory Game Server\tUnofficial'
p1189
sS'10480'
p1190
S' SWAT 4 Dedicated Server[citation needed]\tUnofficial'
p1191
sS'320'
p1192
S' \tPrecision Time Protocol (PTP) general messages\tOfficial'
p1193
sS'8588'
p1194
S' \t\tMapleStory Game Server\tUnofficial'
p1195
sS'3979'
p1196
S'  \tOpenTTD game\tUnofficial'
p1197
sS'3978'
p1198
S'  \tOpenTTD game (masterserver and content service)\tUnofficial'
p1199
sS'5800'
p1200
S' \t\tVNC remote desktop protocol\xe2\x80\x94for use over HTTP\tUnofficial'
p1201
sS'9898'
p1202
S' \t\tTripwire\xe2\x80\x94File Integrity Monitoring Software[139]\tUnofficial'
p1203
sS'9899'
p1204
S' \tSCTP tunneling (port number used in SCTP packets encapsulated in  : , RFC6951)\tOfficial'
p1205
sS'201'
p1206
S'  \tAppleTalk Routing Maintenance\tOfficial'
p1207
sS'18306'
p1208
S'  \tAudition Online Dance Battle, AsiaSoft SEA Server\xe2\x80\x94FAM Database\tUnofficial'
p1209
sS'25007'
p1210
S' \t\tTeamware Office MIME Connector\tOfficial'
p1211
sS'25000'
p1212
S' \t\tTeamware Office standard client connection\tOfficial'
p1213
sS'25001'
p1214
S' \t\tDefault port for Unity3D networking\tOfficial'
p1215
sS'18301'
p1216
S'  \tAudition Online Dance Battle, AsiaSoft SEA Server\tUnofficial'
p1217
sS'18300'
p1218
S'  \tAudition Online Dance Battle, AsiaSoft SEA Server\xe2\x80\x94Status/Version Check\tUnofficial'
p1219
sS'209'
p1220
S'  \tThe Quick Mail Transfer Protocol\tOfficial'
p1221
sS'10514'
p1222
S'  \tTLS-enabled Rsyslog (default by convention)\tUnofficial'
p1223
sS'25008'
p1224
S" \t\tJayson's Water Fun Connector\tUnofficial"
p1225
sS'21012'
p1226
S' \t\tAMLFilter, AMLFilter Inc. amlf-engine-01 default https port\tUnofficial'
p1227
sS'21011'
p1228
S' \t\tAMLFilter, AMLFilter Inc. amlf-engine-01 default http port\tUnofficial'
p1229
sS'4534'
p1230
S' \tArmagetron Advanced default server port\tUnofficial'
p1231
sS'77'
p1232
S'  \tAny private Remote Job Entry\tOfficial'
p1233
sS'37659'
p1234
S' \t\tAxence nVision[citation needed]\tUnofficial'
p1235
sS'74'
p1236
S'  \tNETRJS protocol\tOfficial'
p1237
sS'73'
p1238
S'  \tNETRJS protocol\tOfficial'
p1239
sS'72'
p1240
S'  \tNETRJS protocol\tOfficial'
p1241
sS'71'
p1242
S'  \tNETRJS protocol\tOfficial'
p1243
sS'70'
p1244
S'  \tGopher protocol\tOfficial'
p1245
sS'1501'
p1246
S' \tNetGuard GuardianPro firewall (NT4-based) Authentication Client\tUnofficial'
p1247
sS'6542'
p1248
S' \t\tMirrorOp2 (fallback)\tUnofficial'
p1249
sS'3052'
p1250
S'  \tAPC PowerChute Network[1]\tOfficial'
p1251
sS'3050'
p1252
S'  \tgds_db (Interbase/Firebird)\tOfficial'
p1253
sS'3051'
p1254
S'  \tGalaxy Server (Gateway Ticketing Systems)\tOfficial'
p1255
sS'8840'
p1256
S' \t\tOpera Unite server\tUnofficial'
p1257
sS'19000'
p1258
S' \tJACK sound server\tUnofficial'
p1259
sS'4711'
p1260
S' \t\tMcAfee Web Gateway 7\xe2\x80\x94Default GUI Port HTTP[citation needed]\tUnofficial'
p1261
sS'4712'
p1262
S' \t\tMcAfee Web Gateway 7\xe2\x80\x94Default GUI Port HTTPS[citation needed]\tUnofficial'
p1263
sS'4713'
p1264
S' \t\tPulseAudio sound server\tUnofficial'
p1265
sS'6230'
p1266
S' \t\tCodenger Dev Server\tUnofficial'
p1267
sS'34567'
p1268
S' \t\tEDI service[169]\tOfficial'
p1269
sS'5445'
p1270
S' \tCisco Unified Video Advantage[citation needed]\tUnofficial'
p1271
sS'1768'
p1272
S'  \tcft-1 to cft-7\tOfficial'
p1273
sS'10823'
p1274
S' \tFarming Simulator 2011 Default Server[citation needed]\tUnofficial'
p1275
sS'5931'
p1276
S'  \tAMMYY admin Remote Control\tOfficial'
p1277
sS'5246'
p1278
S' \tControl And Provisioning of Wireless Access Points (CAPWAP) CAPWAP control[89]\tOfficial'
p1279
sS'1762'
p1280
S'  \tcft-1 to cft-7\tOfficial'
p1281
sS'1688'
p1282
S' \t\tMicrosoft Key Management Service for KMS Windows Activation\tUnofficial'
p1283
sS'1761'
p1284
S' \t\tNovell Zenworks Remote Control utility\tUnofficial'
p1285
sS'1766'
p1286
S'  \tcft-1 to cft-7\tOfficial'
p1287
sS'1767'
p1288
S'  \tcft-1 to cft-7\tOfficial'
p1289
sS'1764'
p1290
S'  \tcft-1 to cft-7\tOfficial'
p1291
sS'1765'
p1292
S'  \tcft-1 to cft-7\tOfficial'
p1293
sS'4303'
p1294
S'  \tSimple Railroad Command Protocol (SRCP)\tOfficial'
p1295
sS'6005'
p1296
S' \t\tDefault for Camfrog chat & cam client\tUnofficial'
p1297
sS'1140'
p1298
S'  \tAutoNOC protocol\tOfficial'
p1299
sS'7631'
p1300
S' \t\tERLPhase\tOfficial'
p1301
sS'8629'
p1302
S' \t\tTibero Server\tUnofficial'
p1303
sS'6969'
p1304
S' \t\tBitTorrent tracker\tUnofficial'
p1305
sS'666'
p1306
S" \t\tairserv-ng, aircrack-ng's server for remote-controlling wireless devices\tUnofficial"
p1307
sS'8444'
p1308
S' \t\tBitmessage\tUnofficial'
p1309
sS'12489'
p1310
S' \t\tNSClient/NSClient++/NC_Net (Nagios)\tUnofficial'
p1311
sS'2710'
p1312
S' \t\tKnuddels.de[citation needed]\tUnofficial'
p1313
sS'660'
p1314
S' \t\tMac OS X Server administration\tOfficial'
p1315
sS'2095'
p1316
S' \t\tCPanel default Web mail\tUnofficial'
p1317
sS'2096'
p1318
S' \t\tCPanel default SSL Web mail\tUnofficial'
p1319
sS'3659'
p1320
S' \tKnown to be used by [Battlefield 4]\tUnofficial'
p1321
sS'19814'
p1322
S' \t\t4D database DB4D Communication[158]\tOfficial'
p1323
sS'3389'
p1324
S'  \tMicrosoft Terminal Server (RDP) officially registered as Windows Based Terminal (WBT)[61]\tOfficial'
p1325
sS'8787'
p1326
S' \t\tMapleStory CashShop Game Server\tUnofficial'
p1327
sS'5500'
p1328
S' \t\tVNC remote desktop protocol\xe2\x80\x94for incoming listening viewer, Hotline control connection\tUnofficial'
p1329
sS'5176'
p1330
S' \t\tConsoleWorks default UI interface[citation needed]\tUnofficial'
p1331
sS'2525'
p1332
S' \t\tSMTP alternate[citation needed]\tUnofficial'
p1333
sS'1547'
p1334
S'  \tLaplink\tOfficial'
p1335
sS'690'
p1336
S'  \tVATP (Velneo Application Transfer Protocol)\tOfficial'
p1337
sS'691'
p1338
S' \t\tMS Exchange Routing\tOfficial'
p1339
sS'694'
p1340
S'  \tLinux-HA High availability Heartbeat\tOfficial'
p1341
sS'695'
p1342
S' \t\tIEEE-MMS-SSL (IEEE Media Management System over SSL)[30]\tOfficial'
p1343
sS'11111'
p1344
S' \t\tRiCcI - Remote Configuration Interface (Redhat Linux)\tUnofficial'
p1345
sS'5106'
p1346
S' \t\tA-Talk Common connection[citation needed]\tUnofficial'
p1347
sS'698'
p1348
S' \tOLSR (Optimized Link State Routing)\tOfficial'
p1349
sS'11112'
p1350
S'  \tACR/NEMA Digital Imaging and Communications in Medicine (DICOM)\tOfficial'
p1351
sS'2483'
p1352
S'  \tOracle database listening for unsecure client connections to the listener, replaces port 1521\tOfficial'
p1353
sS'2480'
p1354
S' \t\tOrientDB database listening for HTTP client connections\tOfficial'
p1355
sS'6009'
p1356
S' \t\tJD Edwards EnterpriseOne ERP system JDENet messaging client listener\tUnofficial'
p1357
sS'542'
p1358
S'  \tcommerce (Commerce Applications)\tOfficial'
p1359
sS'543'
p1360
S' \t\tklogin, Kerberos login\tOfficial'
p1361
sS'540'
p1362
S' \t\tUUCP (Unix-to-Unix Copy Protocol)\tOfficial'
p1363
sS'546'
p1364
S'  \tDHCPv6 client\tOfficial'
p1365
sS'547'
p1366
S'  \tDHCPv6 server\tOfficial'
p1367
sS'544'
p1368
S' \t\tkshell, Kerberos Remote shell\tOfficial'
p1369
sS'545'
p1370
S' \t\tOSIsoft PI (VMS), OSISoft PI Server Client Access\tUnofficial'
p1371
sS'8'
S'  \tUnassigned\tOfficial'
p1372
sS'548'
p1373
S' \t\tApple Filing Protocol (AFP) over  : \tOfficial'
p1374
sS'6889'
p1375
S'  \tBitTorrent part of full range of ports used most often\tUnofficial'
p1376
sS'18091'
p1377
S'  \tmemcached Internal REST HTTPS for SSL\tUnofficial'
p1378
sS'16384'
p1379
S' \tCISCO Default RTP MIN\tUnofficial'
p1380
sS'995'
p1381
S' \t\tPost Office Protocol 3 over TLS/SSL (POP3S)\tOfficial'
p1382
sS'994'
p1383
S'  \tInternet Relay Chat over TLS/SSL (IRCS)\tOfficial'
p1384
sS'12012'
p1385
S' \tAudition Online Dance Battle, Korea Server\xe2\x80\x94Status/Version Check\tUnofficial'
p1386
sS'1314'
p1387
S' \t\tFestival Speech Synthesis System\tUnofficial'
p1388
sS'991'
p1389
S'  \tNAS (Netnews Administration System)[43]\tOfficial'
p1390
sS'990'
p1391
S'  \tFTPS Protocol (control): FTP over TLS/SSL\tOfficial'
p1392
sS'993'
p1393
S' \t\tInternet Message Access Protocol over TLS/SSL (IMAPS)\tOfficial'
p1394
sS'992'
p1395
S'  \tTELNET protocol over TLS/SSL\tOfficial'
p1396
sS'999'
p1397
S' \t\tScimoreDB Database System\tUnofficial'
p1398
sS'2211'
p1399
S' \t\tMikroTik Secure management for "The Dude"\tUnofficial'
p1400
sS'1319'
p1401
S' \tAMX ICSP\tOfficial'
p1402
sS'10050'
p1403
S'  \tZabbix-Agent\tOfficial'
p1404
sS'18400'
p1405
S'  \tAudition Online Dance Battle, KAIZEN Brazil Server\xe2\x80\x94Status/Version Check\tUnofficial'
p1406
sS'6444'
p1407
S'  \tSun Grid Engine\xe2\x80\x94Qmaster Service\tOfficial'
p1408
sS'123'
p1409
S'  \tNetwork Time Protocol (NTP)\xe2\x80\x94used for time synchronization\tOfficial'
p1410
sS'43034'
p1411
S'  \tLarmX.com\xe2\x84\xa2 database update mtr port[citation needed]\tUnofficial'
p1412
sS'126'
p1413
S"  \tFormerly Unisys Unitary Login, renamed by Unisys to NXEdit. Used by Unisys Programmer's Workbench for Clearpath MCP, an IDE for Unisys MCP software development\tOfficial"
p1414
sS'8530'
p1415
S' \t\tWindows Server Update Services\tOfficial'
p1416
sS'8531'
p1417
S' \t\tWindows Server Update Services over TLS/SSL (HTTPS)\tOfficial'
p1418
sS'8020'
p1419
S' \t\t360Works SuperContainer[120]\tUnofficial'
p1420
sS'17011'
p1421
S' \t\tWorms multiplayer\tUnofficial'
p1422
sS'3880'
p1423
S'  \tIGRS\tOfficial'
p1424
sS'5591'
p1425
S' \t\tDefault for Tidal Enterprise Scheduler master-Socket used for communication between Agent-to-Master, though can be changed[citation needed]\tUnofficial'
p1426
sS'28395'
p1427
S' \t\twww.SmartSystemsLLC.com Used by Smart Sale 5.0[citation needed]\tUnofficial'
p1428
sS'31456'
p1429
S' \t\tTetriNET IRC gateway on some servers\tUnofficial'
p1430
sS'5421'
p1431
S'  \tNetSupport Manager\tOfficial'
p1432
sS'13783'
p1433
S'  \tSymantec VOPIED protocol (formerly VERITAS)\tOfficial'
p1434
sS'10017'
p1435
S' AIX,NeXT, HPUX\xe2\x80\x94rexd daemon control[citation needed]\tUnofficial'
p1436
sS'2266'
p1437
S'  \tM-Files\tOfficial'
p1438
sS'5718'
p1439
S' \t\tMicrosoft DPM Data Channel (with the agent coordinator)\tUnofficial'
p1440
sS'6560'
p1441
S' \t\tSpeech-Dispatcher daemon\tUnofficial'
p1442
sS'12013'
p1443
S'  \tAudition Online Dance Battle, Korea Server\tUnofficial'
p1444
sS'19'
p1445
S'  \tCharacter Generator Protocol (CHARGEN)\tOfficial'
p1446
sS'2145'
p1447
S' \t\tIron Mountain LiveVault Agent[citation needed]\tUnofficial'
p1448
sS'2144'
p1449
S' \t\tIron Mountain LiveVault Agent[citation needed]\tUnofficial'
p1450
sS'22222'
p1451
S' \t\tDavis Instruments, WeatherLink IP\tUnofficial'
p1452
sS'2142'
p1453
S' \tTDMoIP (RFC 5087)\tOfficial'
p1454
sS'860'
p1455
S' \t\tiSCSI (RFC 3720)\tOfficial'
p1456
sS'3412'
p1457
S'  \txmlBlaster\tOfficial'
p1458
sS'8586'
p1459
S' \t\tMapleStory Game Server\tUnofficial'
p1460
sS'1387'
p1461
S'  \tcadsi-lm, LMS International (formerly Computer Aided Design Software, Inc. (CADSI)) LM\tOfficial'
p1462
sS'6257'
p1463
S' \tWinMX (see also 6699)\tUnofficial'
p1464
sS'6255'
p1465
S'  \tOracle WebCenter Content Portable: Inbound Refinery\xe2\x80\x94Intradoc Socket port\tUnofficial'
p1466
sS'45824'
p1467
S' \t\tServer for the DAI family of client-server products[citation needed]\tOfficial'
p1468
sS'3826'
p1469
S' \t\tUsed by RedSeal Networks client/server connection[citation needed]\tUnofficial'
p1470
sS'319'
p1471
S' \tPrecision Time Protocol (PTP) event messages\tOfficial'
p1472
sS'318'
p1473
S'  \tPKIX TSP, Time Stamp Protocol\tOfficial'
p1474
sS'8983'
p1475
S' \t\tDefault for Apache Solr[132]\tUnofficial'
p1476
sS'5394'
p1477
S' \tKega Fusion, a Sega multi-console emulator[92][93]\tUnofficial'
p1478
sS'1029'
p1479
S' \t\tOften used by Microsoft DCOM services\tUnofficial'
p1480
sS'311'
p1481
S' \t\tMac OS X Server Admin (officially AppleShare IP Web administration)\tOfficial'
p1482
sS'32887'
p1483
S' \t\tUsed by "Ace of Spades" game\tUnofficial'
p1484
sS'9090'
p1485
S' \t\tCherokee Admin Panel\tUnofficial'
p1486
sS'3945'
p1487
S'  \tEMCADS service, a Giritech product used by G/On\tOfficial'
p1488
sS'9092'
p1489
S' \t\tH2 (DBMS) Database Server\tUnofficial'
p1490
sS'5349'
p1491
S' \t\tTURN, a protocol for NAT traversal ( :  is reserved)[63]\tOfficial'
p1492
sS'1920'
p1493
S' \t\tIBM Tivoli monitoring console\tUnofficial'
p1494
sS'25888'
p1495
S' \tXfire (Firewall Report,  : _IN) IP Address (206.220.40.146) resolves to gameservertracking.xfire.com. Use unknown.\tUnofficial'
p1496
sS'9309'
p1497
S'  \tSony PlayStation Vita Host Collaboration WiFi Data Transfer[138]\tUnofficial'
p1498
sS'8442'
p1499
S'  \tCyBro A-bus, Cybrotech Ltd.\tOfficial'
p1500
sS'8443'
p1501
S' \t\tSW Soft Plesk Control Panel, Apache Tomcat SSL, Promise WebPAM SSL, McAfee ePolicy Orchestrator (ePO)\tUnofficial'
p1502
sS'9306'
p1503
S' \t\tSphinx Native API\tOfficial'
p1504
sS'6702'
p1505
S' \t\tDefault for Tidal Enterprise Scheduler client-Socket used for communication between Client-to-Master, though can be changed[citation needed]\tUnofficial'
p1506
sS'9300'
p1507
S' \t\tIBM Cognos 8 SOAP Business Intelligence and Performance Management\tUnofficial'
p1508
sS'4226'
p1509
S'  \tAleph One (game)\tUnofficial'
p1510
sS'9150'
p1511
S' \t\tTor\tUnofficial'
p1512
sS'5099'
p1513
S'  \tSafeNet, Inc Sentinel LM, Sentinel RMS, License Manager, Server-to-Server\tOfficial'
p1514
sS'497'
p1515
S' \t\tDantz Retrospect\tOfficial'
p1516
sS'8888'
p1517
S' \t\tMAMP Server\tUnofficial'
p1518
sS'5005'
p1519
S'\t\tR :  (Real-time Transport Protocol) control protocol (RFC 3551, RFC 4571)\tOfficial'
p1520
sS'23073'
p1521
S' Soldat Dedicated Server\tUnofficial'
p1522
sS'5556'
p1523
S'  \tFreeciv, Oracle WebLogic Server Node Manager[96]\tOfficial'
p1524
sS'5093'
p1525
S' \tSafeNet, Inc Sentinel LM, Sentinel RMS, License Manager, Client-to-Server\tOfficial'
p1526
sS'3478'
p1527
S'  \tTURN, a protocol for NAT traversal[63] (extension to STUN)\tOfficial'
p1528
sS'8881'
p1529
S' \t\tNetflexity Inc QFlex\xe2\x80\x94IBM WebSphere MQ monitoring software.\tUnofficial'
p1530
sS'4125'
p1531
S' \t\tMicrosoft Remote Web Workplace administration\tUnofficial'
p1532
sS'8184'
p1533
S' \t\tNCSA Brown Dog Data Access Proxy\tUnofficial'
p1534
sS'32245'
p1535
S' \t\tMMTSG-mutualed over MMT (encrypted transmission)\tUnofficial'
p1536
sS'3'
S'  \tCompressNET[5] Compression Process[7]\tOfficial'
p1537
sS'20595'
p1538
S' \t0 A.D. Empires Ascendant\tUnofficial'
p1539
sS'369'
p1540
S'  \tRpc2portmap\tOfficial'
p1541
sS'366'
p1542
S'  \tODMR, On-Demand Mail Relay\tOfficial'
p1543
sS'18401'
p1544
S'  \tAudition Online Dance Battle, KAIZEN Brazil Server\tUnofficial'
p1545
sS'5683'
p1546
S' \tConstrained Application Protocol (CoAP)\tOfficial'
p1547
sS'26850'
p1548
S' \t\tWar of No Return Server Port[citation needed]\tUnofficial'
p1549
sS'3005'
p1550
S' \t\tMiralix TimeOut[citation needed]\tUnofficial'
p1551
sS'44405'
p1552
S' \t\tMu Online Connect Server[citation needed]\tUnofficial'
p1553
sS'7023'
p1554
S' \tBryan Wilcutt T2-NMCS Protocol for SatCom Modems\tOfficial'
p1555
sS'7022'
p1556
S' \t\tDatabase mirroring endpoints[111]\tUnofficial'
p1557
sS'383'
p1558
S'  \tHP data alarm manager\tOfficial'
p1559
sS'384'
p1560
S'  \tA Remote Network Server System\tOfficial'
p1561
sS'4190'
p1562
S' \t\tManageSieve[68]\tOfficial'
p1563
sS'7025'
p1564
S' \t\tZimbra LMTP [mailbox]\xe2\x80\x94local mail delivery\tUnofficial'
p1565
sS'387'
p1566
S'  \tAURP, AppleTalk Update-based Routing Protocol[22]\tOfficial'
p1567
sS'389'
p1568
S'  \tLightweight Directory Access Protocol (LDAP)\tOfficial'
p1569
sS'3313'
p1570
S' \t\tVerisys file integrity monitoring software\tUnofficial'
p1571
sS'27900'
p1572
S' Nintendo Wi-Fi Connection\tUnofficial'
p1573
sS'6679'
p1574
S' \t\tIRC SSL (Secure Internet Relay Chat)\xe2\x80\x94often used\tUnofficial'
p1575
sS'9009'
p1576
S'  \tPichat Server\xe2\x80\x94Peer to peer chat software\tOfficial'
p1577
sS'3316'
p1578
S' \t\tAzimuthVMS database port for the CCTV recording software AzimuthVMS\tUnofficial'
p1579
sS'1645'
p1580
S' \tOld radius port, RADIUS authentication protocol. Enabled for compatibility reasons by default on Cisco and Juniper Networks RADIUS servers.[49] Official port is 1812.  :  port 1645 MUST NOT be used.[50]\tUnofficial'
p1581
sS'9312'
p1582
S' \t\tSphinx SphinxQL\tOfficial'
p1583
sS'1646'
p1584
S' \tOld radacct port, RADIUS accounting protocol. Enabled for compatibility reasons by default on Cisco and Juniper Networks RADIUS servers. Official port is 1813.  :  port 1646 MUST NOT be used.[50]\tUnofficial'
p1585
sS'782'
p1586
S' \t\tConserver serial-console management server\tUnofficial'
p1587
sS'783'
p1588
S' \t\tSpamAssassin spamd daemon\tUnofficial'
p1589
sS'4750'
p1590
S' \t\tBladeLogic Agent\tUnofficial'
p1591
sS'6697'
p1592
S' \t\tIRC SSL (Secure Internet Relay Chat)\xe2\x80\x94often used\tOfficial'
p1593
sS'5247'
p1594
S' \tControl And Provisioning of Wireless Access Points (CAPWAP) CAPWAP data[89]\tOfficial'
p1595
sS'1725'
p1596
S' \tValve Steam Client\tUnofficial'
p1597
sS'1723'
p1598
S'  \tMicrosoft Point-to-Point Tunneling Protocol (PPTP)\tOfficial'
p1599
sS'1720'
p1600
S' \t\tH.323 Call signalling\tOfficial'
p1601
sS'7400'
p1602
S'  \tRTPS (Real Time Publish Subscribe) DDS Discovery\tOfficial'
p1603
sS'22350'
p1604
S'  \tCodeMeter, WIBU-SYSTEMS AG Software protection system\tOfficial'
p1605
sS'6111'
p1606
S'  \tspc, HP Softbench Sub-Process Control\tOfficial'
p1607
sS'9002'
p1608
S' Newforma Server comms\tUnofficial'
p1609
sS'30718'
p1610
S' \tLantronix Discovery for Lantronix serial-to-ethernet devices\tUnofficial'
p1611
sS'8192'
p1612
S' \t\tSophos Remote Management System\tUnofficial'
p1613
sS'8100'
p1614
S' \t\tConsole Gateway License Verification\tUnofficial'
p1615
sS'8078'
p1616
S'  \tDefault port for most Endless Online-based servers[citation needed]\tUnofficial'
p1617
sS'9000'
p1618
S' \t\tPHP-FPM default port\tUnofficial'
p1619
sS'30301'
p1620
S' BitTorrent\tUnofficial'
p1621
sS'8172'
p1622
S' \t\tMicrosoft Remote Administration for IIS Manager[123]\tUnofficial'
p1623
sS'6437'
p1624
S' \t\tLeap Motion Websocket Server\tUnofficial'
p1625
sS'2190'
p1626
S' \tTiVoConnect Beacon[citation needed]\tUnofficial'
p1627
sS'3004'
p1628
S' \t\tMiralix InfoLink[citation needed]\tUnofficial'
p1629
sS'3007'
p1630
S' \t\tMiralix OM Server[citation needed]\tUnofficial'
p1631
sS'259'
p1632
S'  \tESRO, Efficient Short Remote Operations\tOfficial'
p1633
sS'64'
p1634
S'  \tCI (Travelport) (formerly Covia) Comms Integrator\tOfficial'
p1635
sS'2195'
p1636
S' \t\tApple Push Notification Service Link\tUnofficial'
p1637
sS'2196'
p1638
S' \t\tApple Push Notification\xe2\x80\x94Feedback Link\tUnofficial'
p1639
sS'67'
p1640
S'  \tBootstrap Protocol (BOOTP) Server; also used by Dynamic Host Configuration Protocol (DHCP)\tOfficial'
p1641
sS'68'
p1642
S'  \tBootstrap Protocol (BOOTP) Client; also used by Dynamic Host Configuration Protocol (DHCP)\tOfficial'
p1643
sS'69'
p1644
S'  \tTrivial File Transfer Protocol (TFTP)\tOfficial'
p1645
sS'3162'
p1646
S'  \tSFLM (Standard Floating License Manager)\tOfficial'
p1647
sS'3008'
p1648
S' \t\tMiralix Proxy[citation needed]\tUnofficial'
p1649
sS'28786'
p1650
S' \tCube 2 Sauerbraten Port 2[162]\tUnofficial'
p1651
sS'8580'
p1652
S' \t\tFreegate\tUnofficial'
p1653
sS'2200'
p1654
S' \tTuxanci game server[51]\tUnofficial'
p1655
sS'1420'
p1656
S'  \tTimbuktu Service 4 Port\tOfficial'
p1657
sS'19540'
p1658
S'  \tBelkin Network USB Hub[citation needed]\tUnofficial'
p1659
sS'1589'
p1660
S' \tCisco VQP (VLAN Query Protocol) / VMPS\tUnofficial'
p1661
sS'8176'
p1662
S' \t\tPerceptive Automation[dead link] Indigo[dead link] Home automation server\xe2\x80\x94control access\tUnofficial'
p1663
sS'16200'
p1664
S' \t\tOracle WebCenter Content: Content Server (formerly known as Oracle Universal Content Management). Port though often changed during installation\tUnofficial'
p1665
sS'1583'
p1666
S' \t\tPervasive PSQL\tUnofficial'
p1667
sS'1580'
p1668
S' \t\tIBM Tivoli Storage Manager server web interface\tUnofficial'
p1669
sS'1581'
p1670
S' \tMIL STD 2045-47001 VMF\tOfficial'
p1671
sS'47808'
p1672
S' \tBACnet Building Automation and Control Networks (4780810 = BAC016), commonly spills to 47809\xe2\x80\x9347816\tOfficial'
p1673
sS'2404'
p1674
S' \t\tIEC 60870-5 -104, used to send electric power telecontrol messages between two systems via directly connected data circuits\tOfficial'
p1675
sS'12035'
p1676
S' \tLinden Lab viewer to sim on SecondLife[citation needed]\tUnofficial'
p1677
sS'2160'
p1678
S' \t\tAPC Agent\tOfficial'
p1679
sS'2369'
p1680
S' \t\tDefault for BMC Software Control-M/Server\xe2\x80\x94Configuration Agent, though often changed during installation\tUnofficial'
p1681
sS'2368'
p1682
S' \t\tUsed by Ghost Blogging Platform\tUnofficial'
p1683
sS'1030'
p1684
S' \t\tservices.exe\tUnofficial'
p1685
sS'5480'
p1686
S' \t\tVMware VAMI (Virtual Appliance Management Infrastructure)\xe2\x80\x94used for initial setup of various administration settings on Virtual Appliances designed using the VAMI architecture.\tUnofficial'
p1687
sS'502'
p1688
S'  \tModbus, Protocol\tOfficial'
p1689
sS'40123'
p1690
S' \tFlatcast[171]\tUnofficial'
p1691
sS'500'
p1692
S'  \tInternet Security Association and Key Management Protocol (ISAKMP)\tOfficial'
p1693
sS'13000'
p1694
S' \tLinden Lab viewer to sim on SecondLife[citation needed]\tUnofficial'
p1695
sS'5029'
p1696
S' \t\tSonic Robo Blast 2 : Multiplayer[80]\tUnofficial'
p1697
sS'631'
p1698
S'  \tCommon Unix Printing System (CUPS) administration console (extension to IPP)\tUnofficial'
p1699
sS'20720'
p1700
S' \t\tSymantec i3 Web GUI server\tUnofficial'
p1701
sS'1217'
p1702
S' \t\tUvora Online\tUnofficial'
p1703
sS'636'
p1704
S'  \tLightweight Directory Access Protocol over TLS/SSL (LDAPS)\tOfficial'
p1705
sS'7707'
p1706
S' \tKilling Floor\tUnofficial'
p1707
sS'465'
p1708
S' \t\tSimple Mail Transfer Protocol over TLS/SSL (SMTPS)\tUnofficial'
p1709
sS'464'
p1710
S'  \tKerberos Change/Set password\tOfficial'
p1711
sS'2424'
p1712
S' \t\tOrientDB database listening for Binary client connections\tOfficial'
p1713
sS'11001'
p1714
S'  \tmetasys ( Johnson Controls Metasys java AC control environment )[citation needed]\tUnofficial'
p1715
sS'1169'
p1716
S'  \tTripwire\tOfficial'
p1717
sS'5555'
p1718
S' \t\tFreeciv versions up to 2.0, Hewlett-Packard Data Protector, McAfee EndPoint Encryption Database Server, SAP, Default for Microsoft Dynamics CRM 4.0\tUnofficial'
p1719
sS'28960'
p1720
S' \tCall of Duty; Call of Duty: United Offensive; Call of Duty 2; Call of Duty 4: Modern Warfare; Call of Duty: World at War (PC Version)\tUnofficial'
p1721
sS'1863'
p1722
S' \t\tMSNP (Microsoft Notification Protocol), used by the Microsoft Messenger service and a number of Instant Messaging clients\tOfficial'
p1723
sS'4443'
p1724
S'  \tIndividual Zone Solutions P/L Remote Mail Checking Protocol\tOfficial'
p1725
sS'4444'
p1726
S' I2P HTTP/S proxy\tUnofficial'
p1727
sS'4445'
p1728
S' \t\tI2P HTTP/S proxy\tUnofficial'
p1729
sS'8087'
p1730
S' \tKaspersky AV Control Center\tUnofficial'
p1731
sS'3724'
p1732
S' \t\tClub Penguin Disney online game for kids\tUnofficial'
p1733
sS'3725'
p1734
S'  \tNetia NA-ER Port\tOfficial'
p1735
sS'161'
p1736
S' \tSimple Network Management Protocol (SNMP)\tOfficial'
p1737
sS'162'
p1738
S'  \tSimple Network Management Protocol Trap (SNMPTRAP)[20]\tOfficial'
p1739
sS'4753'
p1740
S'  \tSIMON (service and discovery)\tOfficial'
p1741
sS'3689'
p1742
S" \t\tDigital Audio Access Protocol (DAAP)\xe2\x80\x94used by Apple's iTunes and AirPort Express\tOfficial"
p1743
sS'29292'
p1744
S' \t\tTMO Integration Service Communications Port, Used by Transaction Manager SaaS (HighJump Software)[citation needed]\tUnofficial'
p1745
sS'7700'
p1746
S' \tP2P DC (RedHub)[citation needed]\tUnofficial'
p1747
sS'6350'
p1748
S'  \tApp Discovery and Access Protocol\tOfficial'
p1749
sS'25999'
p1750
S' \t\tXfire\tUnofficial'
p1751
sS'2420'
p1752
S' \tWestell Remote Access\tOfficial'
p1753
sS'4050'
p1754
S' \t\tMud Master Chat protocol (MMCP) - Peer-to-peer communications between MUD clients.[66]\tUnofficial'
p1755
sS'2159'
p1756
S'  \tGDB Remote Debug Port\tOfficial'
p1757
sS'8589'
p1758
S' \t\tMapleStory Game Server\tUnofficial'
p1759
sS'6784'
p1760
S' \t\tSplashtop Remote server broadcast\tUnofficial'
p1761
sS'9332'
p1762
S' \t\tLitecoin JSON-RPC server\tUnofficial'
p1763
sS'2518'
p1764
S'  \tWilly\tOfficial'
p1765
sS'2103'
p1766
S'  \tzephyr-clt Project Athena Zephyr Notification Service serv-hm connection\tOfficial'
p1767
sS'2102'
p1768
S'  \tzephyr-srv Project Athena Zephyr Notification Service server\tOfficial'
p1769
sS'9421'
p1770
S' \t\tMooseFS distributed file system\xe2\x80\x94master server to clients\tUnofficial'
p1771
sS'2100'
p1772
S' \t\tWarzone 2100 multiplayer\tUnofficial'
p1773
sS'6051'
p1774
S' \t\tArcserve backup\tUnofficial'
p1775
sS'6050'
p1776
S' \t\tNortel software[citation needed]\tUnofficial'
p1777
sS'1513'
p1778
S'  \tGarena Garena Gaming Client\tOfficial'
p1779
sS'1512'
p1780
S'  \tMicrosoft Windows Internet Name Service (WINS)\tOfficial'
p1781
sS'30564'
p1782
S' \t\tMultiplicity: keyboard/mouse/clipboard sharing software\tUnofficial'
p1783
sS'2735'
p1784
S'  \tNetIQ Monitor Console\tOfficial'
p1785
sS'10115'
p1786
S'  \tNetIQ Endpoint\tOfficial'
p1787
sS'3868'
p1788
S' \tSCTP\tDiameter base protocol (RFC 3588)\tOfficial'
p1789
sS'8587'
p1790
S' \t\tMapleStory Game Server\tUnofficial'
p1791
sS'2638'
p1792
S' \t\tSQL Anywhere database server[54][55]\tOfficial'
p1793
sS'5298'
p1794
S'  \tExtensible Messaging and Presence Protocol (XMPP)[91]\tOfficial'
p1795
sS'6660'
p1796
S' \t\tInternet Relay Chat (IRC)\tUnofficial'
p1797
sS'4243'
p1798
S' \t\tCrashPlan\tUnofficial'
p1799
sS'4089'
p1800
S'  \tOpenCORE Remote Control Service\tOfficial'
p1801
sS'2636'
p1802
S' \t\tSolve Service\tOfficial'
p1803
sS'10008'
p1804
S'  \tOctopus Multiplexer, primary port for the CROMP protocol[dead link], which provides a platform-independent means for communication of objects across a network\tOfficial'
p1805
sS'10009'
p1806
S'  \tCross Fire, a multiplayer online First Person Shooter[citation needed]\tUnofficial'
p1807
sS'6771'
p1808
S' \tPolycom server broadcast[citation needed]\tUnofficial'
p1809
sS'3535'
p1810
S' \t\tSMTP alternate[64]\tUnofficial'
p1811
sS'7708'
p1812
S' \tKilling Floor\tUnofficial'
p1813
sS'20790'
p1814
S' \t\tPrecise TPM Web GUI server\tUnofficial'
p1815
sS'6523'
p1816
S' \t\tGobby 0.5 (and other libinfinity-based software)\tUnofficial'
p1817
sS'5050'
p1818
S' \t\tYahoo! Messenger\tUnofficial'
p1819
sS'5051'
p1820
S' \t\tita-agent Symantec Intruder Alert[81]\tOfficial'
p1821
sS'9103'
p1822
S'  \tBacula Storage Daemon\tOfficial'
p1823
sS'16400'
p1824
S' \t\tOracle WebCenter Content: Capture (formerly known as Oracle Document Capture). Port though often changed during installation\tUnofficial'
p1825
sS'1241'
p1826
S'  \tNessus Security Scanner\tOfficial'
p1827
sS'6556'
p1828
S' \t\tCheck MK Agent\tUnofficial'
p1829
sS'7575'
p1830
S' \tPopulous: The Beginning server\tUnofficial'
p1831
sS'1812'
p1832
S'  \tradius, RADIUS authentication protocol\tOfficial'
p1833
sS'1813'
p1834
S'  \tradacct, RADIUS accounting protocol\tOfficial'
p1835
sS'5723'
p1836
S' \t\tSystem Center Operations Manager[100]\tUnofficial'
p1837
sS'12975'
p1838
S' \t\tLogMeIn Hamachi (VPN tunnel software; also port 32976)\xe2\x80\x94used to connect to Mediation Server (bibi.hamachi.cc); will attempt to use SSL ( :  port 443) if both 12975 & 32976 fail to connect\tUnofficial'
p1839
sS'5721'
p1840
S'  \tKaseya[citation needed]\tUnofficial'
p1841
sS'32137'
p1842
S'  \tImmunet Protect ( :  in version 2.0,[165]  :  since version 3.0[166])\tUnofficial'
p1843
sS'873'
p1844
S' \t\trsync file synchronization protocol\tOfficial'
p1845
sS'5724'
p1846
S' \t\tOperations Manager Console\tUnofficial'
p1847
sS'7777'
p1848
S' \t\tUnreal Tournament series default server[citation needed]\tUnofficial'
p1849
sS'3768'
p1850
S'  \tRBLcheckd server daemon\tOfficial'
p1851
sS'36700'
p1852
S' \t\tMapX communication port\tOfficial'
p1853
sS'3180'
p1854
S'  \tHuman Inference Suite6 HTML\tUnofficial'
p1855
sS'3181'
p1856
S'  \tHuman Inference Suite6 HTTPS\tUnofficial'
p1857
sS'2031'
p1858
S'  \tmobrien-chat(http://chat.mobrien.com:2031)\tOfficial'
p1859
sS'2030'
p1860
S' Oracle services for Microsoft Transaction Server\tUnofficial'
p1861
sS'9'
S' \tWake-on-LAN\tUnofficial'
p1862
sS'7471'
p1863
S' \t\tStateless Transport Tunneling (STT)\tUnofficial'
p1864
sS'4847'
p1865
S'  \tWeb Fresh Communication, Quadrion Software & Odorless Entertainment\tOfficial'
p1866
sS'4840'
p1867
S'  \tOPC UA  :  Protocol for OPC Unified Architecture from OPC Foundation\tOfficial'
p1868
sS'34271'
p1869
S' Remuco remote control for media players[167]\tUnofficial'
p1870
sS'4843'
p1871
S'  \tOPC UA  :  Protocol over TLS/SSL for OPC Unified Architecture from OPC Foundation\tOfficial'
p1872
sS'897'
p1873
S'  \tBrocade SMI-S RPC\tUnofficial'
p1874
sS'898'
p1875
S'  \tBrocade SMI-S RPC SSL\tUnofficial'
p1876
sS'14900'
p1877
S' \t\tK3 SYSPRO K3 Framework WCF Backbone[citation needed]\tUnofficial'
p1878
sS'33333'
p1879
S' \tTNTchat default server port\tUnofficial'
p1880
sS'26950'
p1881
S'  \tGIMA Productions\tUnofficial'
p1882
sS'5458'
p1883
S' \t\tOSIsoft PI Notifications Client Access\tUnofficial'
p1884
sS'9043'
p1885
S' \t\tWebSphere Application Server Administration Console secure\tUnofficial'
p1886
sS'10505'
p1887
S' \tBlueStacks (android simulator) broadcast[146]\tUnofficial'
p1888
sS'3544'
p1889
S' \tTeredo tunneling\tOfficial'
p1890
sS'8085'
p1891
S' / : \tWiki Service uses  :  (Mac OS X Server v10.5 and later) / inSpeak Communicator uses both  : / : .\tUnofficial'
p1892
sS'8086'
p1893
S' \t\tKaspersky AV Control Center\tUnofficial'
p1894
sS'4018'
p1895
S'  \tprotocol information and warnings\tOfficial'
p1896
sS'8080'
p1897
S' \t\tVermont Systems / RecTrac Vermont Systems RecTrac (WebTrac) network installer\tUnofficial'
p1898
sS'8081'
p1899
S' \t\tHTTP alternate, VibeStreamer, e.g. McAfee ePolicy Orchestrator (ePO)\tUnofficial'
p1900
sS'1978'
p1901
S' \t\tThe Remote Mouse Server Port\t'
p1902
sS'3225'
p1903
S'  \tFCIP (Fiber Channel over Internet Protocol)\tOfficial'
p1904
sS'1975'
p1905
S' \tCisco TCO (Documentation)\tOfficial'
p1906
sS'6346'
p1907
S'  \tgnutella-svc, gnutella (FrostWire, Limewire, Shareaza, etc.)\tOfficial'
p1908
sS'8088'
p1909
S' \t\tAsterisk (PBX) Web Configuration utility (GUI Addon)\tUnofficial'
p1910
sS'1604'
p1911
S' \t\tDarkcomet RAT server (Remote Administration Tool/Trojan)\tUnofficial'
p1912
sS'1971'
p1913
S'  \tNetop School\tOfficial'
p1914
sS'1970'
p1915
S'  \tNetop Remote Control\tOfficial'
p1916
sS'14439'
p1917
S' \t\tAPRS UI-View Amateur Radio[153] UI-WebServer\tUnofficial'
p1918
sS'356'
p1919
S'  \tcloanto-net-1 (used by Cloanto Amiga Explorer and VMs)\tOfficial'
p1920
sS'808'
p1921
S' \t\tMicrosoft Net. :  Port Sharing Service\tUnofficial'
p1922
sS'11294'
p1923
S' Blood Quest Online Server[citation needed]\tUnofficial'
p1924
sS'351'
p1925
S'  \tMATIP-Type B, Mapping of Airline Traffic over Internet Protocol\tOfficial'
p1926
sS'350'
p1927
S'  \tMATIP-Type A, Mapping of Airline Traffic over Internet Protocol\tOfficial'
p1928
sS'13724'
p1929
S'  \tSymantec Network Utility\xe2\x80\x94vnetd (formerly VERITAS)\tOfficial'
p1930
sS'19001'
p1931
S'  \tAudition Online Dance Battle, G10/alaplaya Server\tUnofficial'
p1932
sS'800'
p1933
S' \tmdbe daemon\tOfficial'
p1934
sS'19007'
p1935
S'  \tVeejansh Inc. Scintilla Device Service\tOfficial'
p1936
sS'7509'
p1937
S' \t\tACPLT - process automation service\tOfficial'
p1938
sS'639'
p1939
S'  \tMSDP, Multicast Source Discovery Protocol\tOfficial'
p1940
sS'18206'
p1941
S'  \tAudition Online Dance Battle, AsiaSoft Thailand Server\xe2\x80\x94FAM Database\tUnofficial'
p1942
sS'2967'
p1943
S' \t\tSymantec AntiVirus Corporate Edition\tUnofficial'
p1944
sS'213'
p1945
S'  \tInternetwork Packet Exchange (IPX)\tOfficial'
p1946
sS'210'
p1947
S'  \tANSI Z39.50\tOfficial'
p1948
sS'3100'
p1949
S' \t\tSMAUSA OpCon Scheduler as the default listen port[citation needed]\tOfficial'
p1950
sS'760'
p1951
S'  \tkrbupdate [kreg], Kerberos registration\tUnofficial'
p1952
sS'16261'
p1953
S'  \tProject Zomboid Multiplayer Server: Additional sequential ports used for each player connecting to server\tUnofficial'
p1954
sS'218'
p1955
S'  \tMessage posting protocol (MPP)\tOfficial'
p1956
sS'3101'
p1957
S' \t\tBlackBerry Enterprise Server communication to cloud\tUnofficial'
p1958
sS'3323'
p1959
S'  \tDECE GEODI Server\tUnofficial'
p1960
sS'28910'
p1961
S' Nintendo Wi-Fi Connection[164]\tUnofficial'
p1962
sS'10212'
p1963
S' \t\tGE Intelligent Platforms Proficy HMI/SCADA \xe2\x80\x93 CIMPLICITY WebView[145]\tOfficial'
p1964
sS'6086'
p1965
S' \t\tPDTP\xe2\x80\x94FTP like file server in a P2P network\tOfficial'
p1966
sS'3040'
p1967
S'  \tGoLabs Update Port / Project Open Cannibal Update Port\tOfficial'
p1968
sS'16567'
p1969
S' \tBattlefield 2 and mods\tUnofficial'
p1970
sS'6129'
p1971
S' \t\tDameWare Remote Control\tOfficial'
p1972
sS'4569'
p1973
S' \tInter-Asterisk eXchange (IAX2)\tOfficial'
p1974
sS'2323'
p1975
S' \t\tPhilips TVs based on jointSPACE[53]\tUnofficial'
p1976
sS'1776'
p1977
S'  \tFederal Emergency Management Information System\tOfficial'
p1978
sS'34443'
p1979
S' Linksys PSUS4 print server[168]\tUnofficial'
p1980
sS'6646'
p1981
S' \tMcAfee Network Agent[citation needed]\tUnofficial'
p1982
sS'8193'
p1983
S' \t\tSophos Remote Management System\tUnofficial'
p1984
sS'8092'
p1985
S' \t\tCouchBase API\tUnofficial'
p1986
sS'30777'
p1987
S' \t\tZangZing agent\tUnofficial'
p1988
sS'8139'
p1989
S' \t\tPuppet (software) Client agent\tUnofficial'
p1990
sS'40000'
p1991
S'  \tSafetyNET p Real-time Industrial Ethernet protocol\tOfficial'
p1992
sS'5900'
p1993
S'  \tRemote Frame Buffer protocol (RFB), Virtual Network Computing (VNC) remote desktop protocol[101]\tOfficial'
p1994
sS'13001'
p1995
S' \t\tForeScout CounterACT[citation needed]\tUnofficial'
p1996
sS'4'
S'  \tUnassigned\tOfficial'
p1997
sS'49151'
p1998
S'  \tReserved[1]'
p1999
sS'280'
p2000
S'  \thttp-mgmt\tOfficial'
p2001
sS'1677'
p2002
S'  \tNovell GroupWise clients in client/server access mode\tOfficial'
p2003
sS'13008'
p2004
S'  \tCross Fire, a multiplayer online First Person Shooter[citation needed]\tUnofficial'
p2005
sS'29000'
p2006
S' Perfect World International Used by the Perfect World International Client\tUnofficial'
p2007
sS'8222'
p2008
S' \t\tVMware Server Management User Interface[124] (insecure Web interface).[125] See also port 8333\tUnofficial'
p2009
sS'31457'
p2010
S' \t\tTetriNET\tOfficial'
p2011
sS'674'
p2012
S' \t\tACAP (Application Configuration Access Protocol)\tOfficial'
p2013
sS'8140'
p2014
S' \t\tPuppet (software) Master server\tUnofficial'
p2015
sS'3483'
p2016
S' \t\tSlim Devices SlimProto protocol\tOfficial'
p2017
sS'5672'
p2018
S' \t\tAMQP[99]\tOfficial'
p2019
sS'1098'
p2020
S'  \trmiactivation, RMI Activation\tOfficial'
p2021
sS'1099'
p2022
S'  \trmiregistry, RMI Registry\tOfficial'
p2023
sS'8742'
p2024
S' \t\tavast! WebShield\tUnofficial'
p2025
sS'262'
p2026
S'  \tArcisdms\tOfficial'
p2027
sS'4560'
p2028
S' \t\tdefault Log4j socketappender port\tUnofficial'
p2029
sS'4567'
p2030
S' \t\tSinatra default server port in development mode (HTTP)\tUnofficial'
p2031
sS'264'
p2032
S'  \tBGMP, Border Gateway Multicast Protocol\tOfficial'
p2033
sS'16300'
p2034
S' \t\tOracle WebCenter Content: Records Management (formerly known as Oracle Universal Records Management). Port though often changed during installation\tUnofficial'
p2035
sS'3645'
p2036
S'  \tCyc\tOfficial'
p2037
sS'5517'
p2038
S' \t\tSetiqueue Proxy server client for SETI@Home project\tUnofficial'
p2039
sS'7080'
p2040
S' Sepialine Argos Communications port\tUnofficial'
p2041
sS'5061'
p2042
S' \t\tSession Initiation Protocol (SIP) over TLS\tOfficial'
p2043
sS'1550'
p2044
S' \t\tGadu-Gadu (direct client-to-client)\tUnofficial'
p2045
sS'3396'
p2046
S'  \tNovell NDPS Printer Agent\tOfficial'
p2047
sS'7655'
p2048
S' \tI2P SAM Bridge Socket API\tUnofficial'
p2049
sS'58'
p2050
S'  \tXNS (Xerox Network Systems) Mail\tOfficial'
p2051
sS'3825'
p2052
S' \t\tUsed by RedSeal Networks client/server connection[citation needed]\tUnofficial'
p2053
sS'20202'
p2054
S' \t\tOnNet (Net2E)\tUnofficial'
p2055
sS'55'
p2056
S'  \tISI Graphics Language (ISI-GL)\tOfficial'
p2057
sS'54'
p2058
S'  \tXNS (Xerox Network Systems) Clearinghouse\tOfficial'
p2059
sS'57'
p2060
S'  \tany private terminal access\tOfficial'
p2061
sS'56'
p2062
S'  \tRoute Access Protocol (RAP)[12]\tUnofficial'
p2063
sS'51'
p2064
S'  \tIMP Logical Address Maintenance\tOfficial'
p2065
sS'50'
p2066
S'  \tRemote Mail Checking Protocol[11]\tOfficial'
p2067
sS'53'
p2068
S'  \tDomain Name System (DNS)\tOfficial'
p2069
sS'52'
p2070
S'  \tXNS (Xerox Network Systems) Time Protocol\tOfficial'
p2071
sS'1418'
p2072
S'  \tTimbuktu Service 2 Port\tOfficial'
p2073
sS'1419'
p2074
S'  \tTimbuktu Service 3 Port\tOfficial'
p2075
sS'8701'
p2076
S' \tSoftPerfect Bandwidth Manager\tUnofficial'
p2077
sS'2809'
p2078
S' \t\tIBM WebSphere Application Server (WAS) rmi default (based on CORBA)\tUnofficial'
p2079
sS'533'
p2080
S' \tnetwall, For Emergency Broadcasts\tOfficial'
p2081
sS'532'
p2082
S' \t\tnetnews\tOfficial'
p2083
sS'531'
p2084
S'  \tAOL Instant Messenger\tUnofficial'
p2085
sS'530'
p2086
S'  \tRPC\tOfficial'
p2087
sS'3001'
p2088
S' \t\tOpsware server (Satellite)\tUnofficial'
p2089
sS'1414'
p2090
S' \t\tIBM WebSphere MQ (formerly known as MQSeries)\tOfficial'
p2091
sS'7890'
p2092
S' \t\tDefault that will be used by the iControl Internet Cafe Suite Administration software\tUnofficial'
p2093
sS'1417'
p2094
S'  \tTimbuktu Service 1 Port\tOfficial'
p2095
sS'5010'
p2096
S'  \tRegistered to: TelePath (the IBM FlowMark workflow-management system messaging platform)[79]'
p2097
sS'1323'
p2098
S'  \tbrcd (Todd Picquelle - multi-purpose application port)\tOfficial'
p2099
sS'4899'
p2100
S'  \tRadmin remote administration tool\tOfficial'
p2101
sS'989'
p2102
S'  \tFTPS Protocol (data): FTP over TLS/SSL\tOfficial'
p2103
sS'3003'
p2104
S' \t\tMiralix GreenBox API[citation needed]\tUnofficial'
p2105
sS'9600'
p2106
S' \tOmron FINS, OMRON FINS PLC communication\tOfficial'
p2107
sS'5151'
p2108
S' \tESRI SDE Remote Start\tOfficial'
p2109
sS'3030'
p2110
S'  \tNetPanzer\tUnofficial'
p2111
sS'10042'
p2112
S' \t\tMathoid server[citation needed]\tUnofficial'
p2113
sS'981'
p2114
S' \t\tSofaWare Technologies Remote HTTPS management for firewall devices running embedded Check Point FireWall-1 software\tUnofficial'
p2115
sS'987'
p2116
S' \t\tMicrosoft Windows SBS SharePoint\tUnofficial'
p2117
sS'4894'
p2118
S'  \tLysKOM Protocol A\tOfficial'
p2119
sS'115'
p2120
S' \t\tSimple File Transfer Protocol\tOfficial'
p2121
sS'117'
p2122
S'\t\tUUCP Path Service\tOfficial'
p2123
sS'111'
p2124
S'  \tONC RPC (Sun RPC)\tOfficial'
p2125
sS'110'
p2126
S' \t\tPost Office Protocol v3 (POP3)\tOfficial'
p2127
sS'113'
p2128
S' \tAuthentication Service[16] (auth)\tOfficial'
p2129
sS'6900'
p2130
S'  \tBitTorrent part of full range of ports used most often\tUnofficial'
p2131
sS'4201'
p2132
S' \t\tTinyMUD and various derivatives\tUnofficial'
p2133
sS'119'
p2134
S' \t\tNetwork News Transfer Protocol (NNTP)\xe2\x80\x94retrieval of newsgroup messages\tOfficial'
p2135
sS'118'
p2136
S'  \tSQL (Structured Query Language) Services\tOfficial'
p2137
sS'9997'
p2138
S' \t\tSplunk port for communication between the forwarders and indexers\tUnofficial'
p2139
sS'9996'
p2140
S" \t\tAdRem Software, Inc.'s NetCrunch NetFlow collector port. This port can be changed [140]\tUnofficial"
p2141
sS'24465'
p2142
S'  \tTonido Directory Server for Tonido which is a Personal Web App and P2P platform\tOfficial'
p2143
sS'10025'
p2144
S' \t\tZimbra smtp [mta]\xe2\x80\x94back to postfix from amavis[citation needed]\tUnofficial'
p2145
sS'6262'
p2146
S' \t\tSybase Advantage Database Server\tUnofficial'
p2147
sS'6260'
p2148
S'  \tplanet M.U.L.E.\tUnofficial'
p2149
sS'8702'
p2150
S' \tSoftPerfect Bandwidth Manager\tUnofficial'
p2151
sS'25005'
p2152
S' \t\tTeamware Office message transfer\tOfficial'
p2153
sS'13785'
p2154
S'  \tSymantec NetBackup Database\xe2\x80\x94nbdb (formerly VERITAS)\tOfficial'
p2155
sS'6514'
p2156
S' \t\tSyslog over TLS[106]\tOfficial'
p2157
sS'6515'
p2158
S'  \tElipse RPC Protocol (REC)\tOfficial'
p2159
sS'28785'
p2160
S' \tCube 2 Sauerbraten[162]\tUnofficial'
p2161
sS'1524'
p2162
S'  \tingreslock, ingres\tOfficial'
p2163
sS'8882'
p2164
S' \t\tAtlasz Informatics Research Ltd Secure Application Server[citation needed]\tUnofficial'
p2165
sS'9303'
p2166
S' \tD-Link Shareport Share storage and MFP printers\tUnofficial'
p2167
sS'1527'
p2168
S' \t\tApache Derby Network Server default port\tUnofficial'
p2169
sS'1521'
p2170
S' \t\tOracle database default listener, in future releases official port 2483\tUnofficial'
p2171
sS'5280'
p2172
S' \t\tExtensible Messaging and Presence Protocol (XMPP) XEP-0124: Bidirectional-streams Over Synchronous HTTP (BOSH)\tOfficial'
p2173
sS'2071'
p2174
S'  \tAxon Control Protocol (ACP)\tOfficial'
p2175
sS'2179'
p2176
S' \t\tVMConnect to Hyper-V hosts\tOfficial'
p2177
sS'911'
p2178
S' \t\tNetwork Console on Acid (NCA)\xe2\x80\x94local tty redirection over OpenSSH\tUnofficial'
p2179
sS'10172'
p2180
S' \t\tIntuit Quickbooks client\tUnofficial'
p2181
sS'427'
p2182
S'  \tService Location Protocol (SLP)\tOfficial'
p2183
sS'2074'
p2184
S'  \tVertel VMF SA (i.e. App.. SpeakFreely)\tOfficial'
p2185
sS'308'
p2186
S' \t\tNovastor Online Backup\tOfficial'
p2187
sS'5432'
p2188
S'  \tPostgreSQL database system\tOfficial'
p2189
sS'5450'
p2190
S' \t\tOSIsoft PI Server Client Access\tUnofficial'
p2191
sS'9675'
p2192
S'  \tSpiceworks Desktop, IT Helpdesk Software\tUnofficial'
p2193
sS'8602'
p2194
S'  \tWavestore Notification protocol[131]\tUnofficial'
p2195
sS'28801'
p2196
S' \tRed Eclipse (Cube 2 derivative) default ports[163]\tUnofficial'
p2197
sS'5433'
p2198
S' \t\tBouwsoft file/webserver[95]\tUnofficial'
p2199
sS'300'
p2200
S' \t\tThinLinc Web Access\tUnofficial'
p2201
sS'5124'
p2202
S'  \tTorgaNET (Micronational Darknet)\tUnofficial'
p2203
sS'11950'
p2204
S' \t\tMurraycoin JSON-RPC server[147]\tUnofficial'
p2205
sS'9080'
p2206
S' \t\tServerWMC, Windows Media Center addon\tUnofficial'
p2207
sS'4116'
p2208
S'  \tSmartcard-TLS\tOfficial'
p2209
sS'3260'
p2210
S' \t\tiSCSI target\tOfficial'
p2211
sS'11211'
p2212
S'  \tmemcached\tUnofficial'
p2213
sS'1935'
p2214
S' \t\tAdobe Systems Macromedia Flash Real Time Messaging Protocol (RTMP) "plain" protocol\tOfficial'
p2215
sS'4111'
p2216
S' \t\tXgrid\tOfficial'
p2217
sS'3269'
p2218
S'  \tmsft-gc-ssl, Microsoft Global Catalog over SSL (similar to port 3268, LDAP over SSL)\tOfficial'
p2219
sS'3268'
p2220
S'  \tmsft-gc, Microsoft Global Catalog (LDAP service which contains data from Active Directory forests)\tOfficial'
p2221
sS'2210'
p2222
S' \t\tMikroTik Remote management for "The Dude"\tUnofficial'
p2223
sS'5121'
p2224
S' \t\tNeverwinter Nights\tUnofficial'
p2225
sS'12443'
p2226
S' \t\tIBM HMC web browser management access over HTTPS instead of default port 443[151]\tUnofficial'
p2227
sS'847'
p2228
S' \t\tDHCP Failover protocol\tOfficial'
p2229
sS'7652'
p2230
S' \t\tI2P anonymizing overlay network\tUnofficial'
p2231
sS'843'
p2232
S' \t\tAdobe Flash[41]\tUnofficial'
p2233
sS'5083'
p2234
S'  \tQpur File Protocol\tOfficial'
p2235
sS'5082'
p2236
S'  \tQpur Communication Protocol\tOfficial'
p2237
sS'19812'
p2238
S' \t\t4D database SQL Communication[158]\tOfficial'
p2239
sS'8195'
p2240
S' \t\tBloomberg Application[citation needed]\tUnofficial'
p2241
sS'27010'
p2242
S' Source engine dedicated server port\tUnofficial'
p2243
sS'5085'
p2244
S'  \tEPCglobal Low Level Reader Protocol (LLRP) over TLS\tOfficial'
p2245
sS'848'
p2246
S'  \tGroup Domain Of Interpretation (GDOI) protocol\tOfficial'
p2247
sS'24441'
p2248
S'  \tPyzor spam detection network\tUnofficial'
p2249
sS'12032'
p2250
S' \t\tAxence nVision[149]\tUnofficial'
p2251
sS'2399'
p2252
S' \t\tFileMaker Data Access Layer (ODBC/JDBC)\tOfficial'
p2253
sS'10051'
p2254
S'  \tZabbix-Trapper\tOfficial'
p2255
sS'12031'
p2256
S' \t\tAxence nVision[149]\tUnofficial'
p2257
sS'43594'
p2258
S' \t\tRuneScape, FunOrb, Runescape Private Servers game servers\tUnofficial'
p2259
sS'6869'
p2260
S' \t\tDerandom default server\tUnofficial'
p2261
sS'32769'
p2262
S' \t\tFileNet RPC\tUnofficial'
p2263
sS'2077'
p2264
S' \t\tTrelliSoft Agent\tOfficial'
p2265
sS'26900'
p2266
S" \t\tCCP's EVE Online Online gaming MMORPG\tUnofficial"
p2267
sS'26901'
p2268
S" \t\tCCP's EVE Online Online gaming MMORPG\tUnofficial"
p2269
sS'5011'
p2270
S'  \tTelePath (the IBM FlowMark workflow-management system messaging platform)[79]\tOfficial'
p2271
sS'19813'
p2272
S'  \t4D database Client Server Communication[158]\tOfficial'
p2273
sS'28852'
p2274
S'  \tKilling Floor\tUnofficial'
p2275
sS'5048'
p2276
S' \t\tTexai Message Service\tOfficial'
p2277
sS'18606'
p2278
S'  \tX-BEAT\tUnofficial'
p2279
sS'18605'
p2280
S'  \tX-BEAT\xe2\x80\x94Status/Version Check\tUnofficial'
p2281
sS'6600'
p2282
S' \t\tMusic Player Daemon (MPD)\tUnofficial'
p2283
sS'6601'
p2284
S' \t\tMicrosoft Forefront Threat Management Gateway\tOfficial'
p2285
sS'6602'
p2286
S' \t\tMicrosoft Windows WSS Communication\tOfficial'
p2287
sS'9060'
p2288
S' \t\tWebSphere Application Server Administration Console\tUnofficial'
p2289
sS'32976'
p2290
S' \t\tLogMeIn Hamachi (VPN tunnel software; also port 12975)\xe2\x80\x94used to connect to Mediation Server (bibi.hamachi.cc); will attempt to use SSL ( :  port 443) if both 12975 & 32976 fail to connect\tUnofficial'
p2291
sS'5062'
p2292
S'  \tLocalisation access\tOfficial'
p2293
sS'2000'
p2294
S'  \tCisco SCCP (Skinny)\tOfficial'
p2295
sS'7010'
p2296
S' \t\tDefault for Cisco AON AMC (AON Management Console)[110]\tUnofficial'
p2297
sS'22136'
p2298
S' \t\tFLIR Systems Camera Resource Protocol\tUnofficial'
p2299
sS'1984'
p2300
S' \t\tBig Brother and related Xymon (formerly Hobbit) System and Network Monitor\tOfficial'
p2301
sS'1985'
p2302
S' \tCisco HSRP\tOfficial'
p2303
sS'2370'
p2304
S' \t\tDefault for BMC Software Control-M/Server\xe2\x80\x94to allow the Control-M/Enterprise Manager to connect to the Control-M/Server\tUnofficial'
p2305
sS'19294'
p2306
S' \t\tGoogle Talk Voice and Video connections[157]\tUnofficial'
p2307
sS'19295'
p2308
S' \tGoogle Talk Voice and Video connections[157]\tUnofficial'
p2309
sS'4069'
p2310
S' \tMinger Email Address Verification Protocol[67]\tOfficial'
p2311
sS'4747'
p2312
S' \t\tApprentice\tUnofficial'
p2313
sS'19283'
p2314
S'  \tK2\xe2\x80\x94KeyAuditor & KeyServer, Sassafras Software Inc.[156] Software Asset Management tools\tOfficial'
p2315
sS'9217'
p2316
S' \t\tiPass Platform Service\tUnofficial'
p2317
sS'21025'
p2318
S' \t\tStarbound Server (default), Starbound\tUnofficial'
p2319
sS'16000'
p2320
S' \t\tshroudBNC\tUnofficial'
p2321
sS'18505'
p2322
S'  \tAudition Online Dance Battle R4p3 Server, Nexon Server\xe2\x80\x94Status/Version Check\tUnofficial R4p3 Server'
p2323
sS'5150'
p2324
S'  \tMalware Cerberus RAT[citation needed]\tUnofficial'
p2325
sS'12030'
p2326
S' \t\tNetCrunch - port for connection between NetCrunch Server and NetCrunch Guard [140]\tUnofficial'
p2327
sS'12009'
p2328
S' \t\tNetCrunch 8 port for connection between NetCrunch 8 Server and Administration Console. This port can be changed [140]\tUnofficial'
p2329
sS'29920'
p2330
S' Nintendo Wi-Fi Connection[164]\tUnofficial'
p2331
sS'753'
p2332
S' \tuserreg_server, Kerberos userreg server\tUnofficial'
p2333
sS'752'
p2334
S' \tpasswd_server, Kerberos Password (kpasswd) server\tUnofficial'
p2335
sS'751'
p2336
S'  \tkerberos_master, Kerberos authentication\tUnofficial'
p2337
sS'750'
p2338
S' \tkerberos-iv, Kerberos version IV\tOfficial'
p2339
sS'2811'
p2340
S' \t\tgsi ftp, per the GridFTP specification\tOfficial'
p2341
sS'3606'
p2342
S'  \tSplitlock Server\tOfficial'
p2343
sS'3605'
p2344
S' \tComCam IO Port\tOfficial'
p2345
sS'754'
p2346
S' \ttell send\tOfficial'
p2347
sS'560'
p2348
S' \trmonitor, Remote Monitor\tOfficial'
p2349
sS'561'
p2350
S' \tmonitor\tOfficial'
p2351
sS'31620'
p2352
S'  \tLM-MON (Standard Floating License Manager LM-MON)\tOfficial'
p2353
sS'563'
p2354
S'  \tNNTP over TLS/SSL (NNTPS)\tOfficial'
p2355
sS'564'
p2356
S' \t\tPlan9\tUnofficial'
p2357
sS'5154'
p2358
S'  \tBZFlag\tOfficial'
p2359
sS'3071'
p2360
S'  \tCall of duty Black ops port\tOfficial'
p2361
sS'2181'
p2362
S' \t\tApache ZooKeeper default client port\tUnofficial'
p2363
sS'3074'
p2364
S'  \tXbox LIVE and/or Games for Windows \xe2\x80\x93 Live\tOfficial'
p2365
sS'1590'
p2366
S' \t\tGE Smallworld Datastore Server (SWMFS/Smallworld Master Filesystem)[citation needed]\tUnofficial'
p2367
sS'6881'
p2368
S'  \tBitTorrent part of full range of ports used most often\tUnofficial'
p2369
sS'22347'
p2370
S'  \tWibuKey, WIBU-SYSTEMS AG Software protection system\tOfficial'
p2371
sS'5455'
p2372
S' \t\tOSIsoft PI Asset Framework 1.x Client Access\tUnofficial'
p2373
sS'4604'
p2374
S' \t\tIdentity Registration Protocol\tOfficial'
p2375
sS'4605'
p2376
S' \t\tDirect End to End Secure Chat Protocol\tOfficial'
p2377
sS'504'
p2378
S'  \tCitadel\xe2\x80\x94multiservice protocol for dedicated clients for the Citadel groupware system\tOfficial'
p2379
sS'6888'
p2380
S'  \tBitTorrent part of full range of ports used most often\tUnofficial'
p2381
sS'220'
p2382
S'  \tInternet Message Access Protocol (IMAP), version 3\tOfficial'
p2383
sS'1025'
p2384
S' \t\tNFS or IIS or Teradata\tUnofficial'
p2385
sS'2212'
p2386
S' \t\tPort-A-Pour Remote WinBatch\tUnofficial'
p2387
sS'1027'
p2388
S' \tNative IPv6 behind IPv4-to-IPv4 NAT Customer Premises Equipment (6a44)[44]\tOfficial'
p2389
sS'1026'
p2390
S' \t\tOften used by Microsoft DCOM services\tUnofficial'
p2391
sS'3784'
p2392
S' \tBidirectional Forwarding Detection (BFD)for IPv4 and IPv6 (Single Hop) (rfc 5881)\tOfficial'
p2393
sS'1023'
p2394
S'  \tReserved[1]'
p2395
sS'2219'
p2396
S'  \tNetIQ NCAP Protocol\tOfficial'
p2397
sS'1182'
p2398
S'  \tAcceleNet Intelligent Transfer Protocol\tOfficial'
p2399
sS'1481'
p2400
S'  \tAIRS\tOfficial'
p2401
sS'6112'
p2402
S' \t\tClub Penguin Disney online game for kids\tUnofficial'
p2403
sS'6113'
p2404
S' \t\tClub Penguin Disney online game for kids, Used by some Blizzard games[45]\tUnofficial'
p2405
sS'19226'
p2406
S' \t\tPanda Software AdminSecure Communication Agent\tUnofficial'
p2407
sS'6699'
p2408
S' \t\tWinMX (see also 6257)\tUnofficial'
p2409
sS'19999'
p2410
S" DNP\xe2\x80\x94Secure (Distributed Network Protocol\xe2\x80\x94Secure), a secure version of the protocol used in SCADA systems between communicating RTU's and IED's\tOfficial"
p2411
sS'9010'
p2412
S' \t\tTISERVICEMANAGEMENT Numara Track-It!\tUnofficial'
p2413
sS'2351'
p2414
S' \t\tAIM game LAN network port\tUnofficial'
p2415
sS'5070'
p2416
S' \t\tBinary Floor Control Protocol (BFCP)[84]\tUnofficial'
p2417
sS'6902'
p2418
S'  \tBitTorrent part of full range of ports used most often\tUnofficial'
p2419
sS'604'
p2420
S' \t\tTUNNEL profile,[25] a protocol for BEEP peers to form an application layer tunnel\tOfficial'
p2421
sS'153'
p2422
S'  \tSGMP, Simple Gateway Monitoring Protocol\tOfficial'
p2423
sS'1167'
p2424
S' \tphone, conference calling\tUnofficial'
p2425
sS'7935'
p2426
S' \t\tFixed port used for Adobe Flash Debug Player to communicate with a debugger (Flash IDE, Flex Builder or fdb).[116]\tUnofficial'
p2427
sS'6901'
p2428
S'  \tBitTorrent part of full range of ports used most often\tUnofficial'
p2429
sS'7937'
p2430
S'  \tEMC2 (Legato) Networker or Sun Solstice Backup\tOfficial'
p2431
sS'156'
p2432
S'  \tSQL Service\tOfficial'
p2433
sS'9106'
p2434
S'  \tAstergate Control Daemon\tOfficial'
p2435
sS'158'
p2436
S'  \tDMSP, Distributed Mail Service Protocol[19]\tUnofficial'
p2437
sS'9105'
p2438
S'  \tXadmin Control Daemon\tOfficial'
p2439
sS'4242'
p2440
S' \t\tQuassel distributed IRC client\tUnofficial'
p2441
sS'1200'
p2442
S' \tSteam Friends Applet\tUnofficial'
p2443
sS'9100'
p2444
S'  \tLPR - RAW Printing\tOfficial'
p2445
sS'9101'
p2446
S'  \tBacula Director\tOfficial'
p2447
sS'3306'
p2448
S'  \tMySQL database system\tOfficial'
p2449
sS'25560'
p2450
S' \t\tcodeheart.js Relay Server\tUnofficial'
p2451
sS'5457'
p2452
S' \t\tOSIsoft PI Asset Framework 2.x Client Access\tUnofficial'
p2453
sS'25565'
p2454
S' MySQL Standard MySQL port\tUnofficial'
p2455
sS'7831'
p2456
S' \t\tDefault used by Smartlaunch Internet Cafe Administration[114] software\tUnofficial'
p2457
sS'8007'
p2458
S' \t\tDell AppAssure 5 Engine[119]\tOfficial'
p2459
sS'399'
p2460
S'  \tDigital Equipment Corporation DECnet (Phase V+) over  : /IP\tOfficial'
p2461
sS'635'
p2462
S'  \tRLZ DBase\tOfficial'
p2463
sS'749'
p2464
S'  \tKerberos (protocol) administration\tOfficial'
p2465
sS'6343'
p2466
S' \tSFlow, sFlow traffic monitoring\tOfficial'
p2467
sS'3305'
p2468
S'  \todette-ftp, Odette File Transfer Protocol (OFTP)\tOfficial'
p2469
sS'1214'
p2470
S' \t\tKazaa\tOfficial'
p2471
sS'6347'
p2472
S'  \tgnutella-rtr, Gnutella alternate\tOfficial'
p2473
sS'49'
p2474
S'  \tTACACS Login Host protocol\tOfficial'
p2475
sS'47'
p2476
S'  \tNI FTP\tOfficial'
p2477
sS'953'
p2478
S'  \tDomain Name System (DNS) RNDC Service\tUnofficial'
p2479
sS'8069'
p2480
S' \t\tOpenERP Default HTTP port (web interface and xmlrpc calls)\tUnofficial'
p2481
sS'42'
p2482
S'  \tWindows Internet Name Service\tUnofficial'
p2483
sS'43'
p2484
S'  \tWHOIS protocol\tOfficial'
p2485
sS'40'
p2486
S'  \tUnassigned\tOfficial'
p2487
sS'1110'
p2488
S" \tEasyBits School network discovery protocol (for Intel's CMPC platform)\tUnofficial"
p2489
sS'5'
S'  \tRemote Job Entry\tOfficial'
p2490
sS'29070'
p2491
S'  \tGame titled "Jedi Knight: Jedi Academy" by Ravensoft\tUnofficial'
p2492
sS'1352'
p2493
S' \t\tIBM Lotus Notes/Domino (RPC) protocol\tOfficial'
p2494
sS'1119'
p2495
S'  \tUsed by some Blizzard games[45]\tUnofficial'
p2496
sS'1293'
p2497
S'  \tIPSec (Internet Protocol Security)\tOfficial'
p2498
sS'9422'
p2499
S' \t\tMooseFS distributed file system\xe2\x80\x94chunk servers to clients\tUnofficial'
p2500
sS'2501'
p2501
S' \t\tTheosNet-Admin listening for The\xc3\xb2sMessenger client connections\tOfficial'
p2502
sS'2500'
p2503
S' \t\tTHE\xc3\x92SMESSENGER listening for The\xc3\xb2sMessenger client connections\tOfficial'
p2504
sS'4093'
p2505
S'  \tPxPlus Client server interface ProvideX\tOfficial'
p2506
sS'8889'
p2507
S' \t\tEarthland Relams 2 Server (AU1_1)[citation needed]\tUnofficial'
p2508
sS'4090'
p2509
S'  \tKerio\tOfficial'
p2510
sS'13786'
p2511
S'  \tSymantec nomdb (formerly VERITAS)\tOfficial'
p2512
sS'4096'
p2513
S'  \tAscom Timeplex BRE (Bridge Relay Element)\tOfficial'
p2514
sS'11235'
p2515
S' Savage:Battle for Newerth Server Hosting[citation needed]\tUnofficial'
p2516
sS'6690'
p2517
S' \t\tSynology Cloud station\tUnofficial'
p2518
sS'5281'
p2519
S' \t\tExtensible Messaging and Presence Protocol (XMPP)[90]\tUnofficial'
p2520
sS'2641'
p2521
S'  \tHDL Server from CNRI\tOfficial'
p2522
sS'2642'
p2523
S'  \tTragic\tOfficial'
p2524
sS'2643'
p2525
S' \t\tNetApp SANTricity Storage Manager Jview process\tOfficial'
p2526
sS'31458'
p2527
S' \t\tTetriNET Used for game spectators\tUnofficial'
p2528
sS'9191'
p2529
S' \t\tSierra Wireless Airlink\tUnofficial'
p2530
sS'37601'
p2531
S' \t\tEpipole File Transfer Protocol [170]\tOfficial'
p2532
sS'12345'
p2533
S' NetBus\xe2\x80\x94remote administration tool (often Trojan horse). Also used by NetBuster. Little Fighter 2 ( : ), Cubeworld[150] ( :  and  : ), and ( : ) GVG (Grass Valley Group) SMS7000 and RCL video router control\tUnofficial'
p2534
sS'8008'
p2535
S' \t\tIBM HTTP Server administration default\tUnofficial'
p2536
sS'8009'
p2537
S' \t\tajp13\xe2\x80\x94Apache JServ Protocol AJP Connector\tUnofficial'
p2538
sS'1763'
p2539
S'  \tcft-1 to cft-7\tOfficial'
p2540
sS'9199'
p2541
S' \t\tAvtex LLC\xe2\x80\x94qStats\tUnofficial'
p2542
sS'8005'
p2543
S" \t\tApache Tomcat's Shutdown port\tUnofficial"
p2544
sS'8006'
p2545
S' \t\tDell AppAssure 5 API and Replication[119]\tOfficial'
p2546
sS'2427'
p2547
S' \tCisco MGCP\tOfficial'
p2548
sS'8000'
p2549
S' \t\tNortel Contivity Router Firewall User Authentication (FWUA) default port number\tUnofficial'
p2550
sS'8001'
p2551
S' \t\tCommonly used for internet radio streams such as those using SHOUTcast\tUnofficial'
p2552
sS'8002'
p2553
S' \t\tCisco Systems Unified Call Manager Intercluster[citation needed]\tUnofficial'
p2554
sS'4728'
p2555
S' \t\tComputer Associates Desktop and Server Management (DMP)/Port Multiplexer[75]\tOfficial'
p2556
sS'8998'
p2557
S' \t\tI2P Monotone Repository\tUnofficial'
p2558
sS'9695'
p2559
S' \tCCNx\tOfficial'
p2560
sS'6543'
p2561
S' \tParadigm Research & Development[dead link] Jetnet[107] default\tUnofficial'
p2562
sS'5417'
p2563
S'  \tSNS Agent\tOfficial'
p2564
sS'1801'
p2565
S'  \tMicrosoft Message Queuing\tOfficial'
p2566
sS'3785'
p2567
S' \tVoIP program used by Ventrilo\tUnofficial'
p2568
sS'3423'
p2569
S' \t\tXware xTrm Communication Protocol\tOfficial'
p2570
sS'19638'
p2571
S' \t\tEnsim Control Panel[citation needed]\tUnofficial'
p2572
sS'12201'
p2573
S' \tGELF Protocol\tUnofficial'
p2574
sS'5037'
p2575
S' \t\tAndroid ADB server\tUnofficial'
p2576
sS'5631'
p2577
S' \t\tpcANYWHEREdata, Symantec pcAnywhere (version 7.52 and later[97])[98] data\tOfficial'
p2578
sS'5632'
p2579
S' \tpcANYWHEREstat, Symantec pcAnywhere (version 7.52 and later) status\tOfficial'
p2580
sS'3424'
p2581
S' \t\tXware xTrm Communication Protocol over SSL\tOfficial'
p2582
sS'2002'
p2583
S' \t\tSecure Access Control Server (ACS) for Windows[citation needed]\tUnofficial'
p2584
sS'6789'
p2585
S" \t\tBucky's Instant Messaging Program\tUnofficial"
p2586
sS'1364'
p2587
S' \t\tIBM Connect:Direct/FTP+ FTPS Protocol: FTP over TLS/SSL\tUnofficial'
p2588
sS'2001'
p2589
S' \tCAPTAN Test Stand System\tUnofficial'
p2590
sS'8484'
p2591
S' \t\tMapleStory Login Server\tUnofficial'
p2592
sS'4993'
p2593
S'  \tHome FTP Server web Interface Default Port[citation needed]\tUnofficial'
p2594
sS'475'
p2595
S'  \t : nethaspsrv (Aladdin Knowledge Systems Hasp services,  : /IP version)\tOfficial'
p2596
sS'2008'
p2597
S' \t\tStylex Secured server\tUnofficial'
p2598
sS'5938'
p2599
S'  \tTeamViewer remote desktop protocol[102]\tUnofficial'
p2600
sS'16225'
p2601
S' \t\tOracle WebCenter Content: Content Server Web UI. Port though often changed during installation\tUnofficial'
p2602
sS'2303'
p2603
S' \tArmA multiplayer (default for server reporting) (default port for game +1)\tUnofficial'
p2604
sS'5550'
p2605
S' \t\tHewlett-Packard Data Protector[citation needed]\tUnofficial'
p2606
s.