(dp1
S'skill'
p2
(lp3
S'Python'
p4
aS'Machine learning'
p5
aS'JAVA'
p6
asS'Company'
p7
(lp8
S'Sapient'
p9
aS'Delliot'
p10
aS'IBM'
p11
asS'name'
p12
(lp13
S'Mohit'
p14
aS'Ravender'
p15
aS'Bhaskar'
p16
as.